SF:/home/sautax/git/nethsm-pkcs11/pkcs11/src/api/decrypt.rs
FN:9,_RNvNtNtCsggOPaNFMSYu_13nethsm_pkcs113api7decrypt13C_DecryptInit
FN:40,_RNvNtNtCsggOPaNFMSYu_13nethsm_pkcs113api7decrypt9C_Decrypt
FN:100,_RNvNtNtCsggOPaNFMSYu_13nethsm_pkcs113api7decrypt15C_DecryptUpdate
FN:131,_RNvNtNtCsggOPaNFMSYu_13nethsm_pkcs113api7decrypt14C_DecryptFinal
FN:193,_RNvNtNtCsggOPaNFMSYu_13nethsm_pkcs113api7decrypt21C_DecryptVerifyUpdate
FN:9,_RNvNtNtCsjTLMFSz4sfV_13nethsm_pkcs113api7decrypt13C_DecryptInit
FN:40,_RNvNtNtCsjTLMFSz4sfV_13nethsm_pkcs113api7decrypt9C_Decrypt
FN:100,_RNvNtNtCsjTLMFSz4sfV_13nethsm_pkcs113api7decrypt15C_DecryptUpdate
FN:131,_RNvNtNtCsjTLMFSz4sfV_13nethsm_pkcs113api7decrypt14C_DecryptFinal
FN:193,_RNvNtNtCsjTLMFSz4sfV_13nethsm_pkcs113api7decrypt21C_DecryptVerifyUpdate
FN:209,_RNCNvNtNtNtCsjTLMFSz4sfV_13nethsm_pkcs113api7decrypt5tests26test_decrypt_verify_update0B9_
FN:210,_RNvNtNtNtCsjTLMFSz4sfV_13nethsm_pkcs113api7decrypt5testss_26test_decrypt_verify_update
FNDA:12,_RNvNtNtCsggOPaNFMSYu_13nethsm_pkcs113api7decrypt13C_DecryptInit
FNDA:12,_RNvNtNtCsggOPaNFMSYu_13nethsm_pkcs113api7decrypt9C_Decrypt
FNDA:0,_RNvNtNtCsggOPaNFMSYu_13nethsm_pkcs113api7decrypt15C_DecryptUpdate
FNDA:0,_RNvNtNtCsggOPaNFMSYu_13nethsm_pkcs113api7decrypt14C_DecryptFinal
FNDA:0,_RNvNtNtCsggOPaNFMSYu_13nethsm_pkcs113api7decrypt21C_DecryptVerifyUpdate
FNDA:0,_RNvNtNtCsjTLMFSz4sfV_13nethsm_pkcs113api7decrypt13C_DecryptInit
FNDA:0,_RNvNtNtCsjTLMFSz4sfV_13nethsm_pkcs113api7decrypt9C_Decrypt
FNDA:0,_RNvNtNtCsjTLMFSz4sfV_13nethsm_pkcs113api7decrypt15C_DecryptUpdate
FNDA:0,_RNvNtNtCsjTLMFSz4sfV_13nethsm_pkcs113api7decrypt14C_DecryptFinal
FNDA:1,_RNvNtNtCsjTLMFSz4sfV_13nethsm_pkcs113api7decrypt21C_DecryptVerifyUpdate
FNDA:1,_RNCNvNtNtNtCsjTLMFSz4sfV_13nethsm_pkcs113api7decrypt5tests26test_decrypt_verify_update0B9_
FNDA:1,_RNvNtNtNtCsjTLMFSz4sfV_13nethsm_pkcs113api7decrypt5testss_26test_decrypt_verify_update
FNF:7
FNH:5
DA:9,12
DA:10,12
DA:11,12
DA:12,12
DA:13,12
DA:14,12
DA:16,12
DA:17,0
DA:18,12
DA:19,12
DA:20,12
DA:22,12
DA:24,12
DA:25,12
DA:26,0
DA:27,0
DA:28,0
DA:32,12
DA:34,12
DA:35,12
DA:36,0
DA:38,12
DA:40,12
DA:41,12
DA:42,12
DA:43,12
DA:44,12
DA:45,12
DA:46,12
DA:47,12
DA:49,12
DA:51,12
DA:52,0
DA:53,0
DA:54,12
DA:55,12
DA:56,12
DA:57,12
DA:58,12
DA:59,12
DA:60,12
DA:61,12
DA:62,12
DA:63,12
DA:64,12
DA:65,0
DA:66,12
DA:67,12
DA:68,12
DA:69,0
DA:70,12
DA:71,12
DA:72,12
DA:74,12
DA:75,12
DA:76,0
DA:77,0
DA:78,0
DA:82,12
DA:83,12
DA:84,12
DA:85,12
DA:86,12
DA:87,12
DA:88,0
DA:89,12
DA:90,12
DA:91,12
DA:92,12
DA:93,12
DA:94,12
DA:95,12
DA:96,12
DA:97,12
DA:98,12
DA:100,0
DA:101,0
DA:102,0
DA:103,0
DA:104,0
DA:105,0
DA:106,0
DA:107,0
DA:109,0
DA:111,0
DA:112,0
DA:113,0
DA:114,0
DA:115,0
DA:116,0
DA:117,0
DA:118,0
DA:119,0
DA:120,0
DA:121,0
DA:122,0
DA:123,0
DA:124,0
DA:125,0
DA:126,0
DA:129,0
DA:131,0
DA:132,0
DA:133,0
DA:134,0
DA:135,0
DA:136,0
DA:138,0
DA:140,0
DA:141,0
DA:142,0
DA:143,0
DA:144,0
DA:145,0
DA:147,0
DA:148,0
DA:149,0
DA:150,0
DA:151,0
DA:155,0
DA:156,0
DA:157,0
DA:158,0
DA:159,0
DA:160,0
DA:161,0
DA:162,0
DA:163,0
DA:164,0
DA:165,0
DA:167,0
DA:168,0
DA:169,0
DA:170,0
DA:171,0
DA:175,0
DA:176,0
DA:177,0
DA:178,0
DA:179,0
DA:180,0
DA:181,0
DA:182,0
DA:183,0
DA:184,0
DA:185,0
DA:186,0
DA:187,0
DA:188,0
DA:189,0
DA:190,0
DA:191,0
DA:193,1
DA:194,1
DA:195,1
DA:196,1
DA:197,1
DA:198,1
DA:199,1
DA:200,1
DA:201,1
DA:202,1
DA:209,1
DA:210,1
DA:211,1
DA:212,1
DA:213,1
DA:214,1
DA:215,1
DA:216,1
DA:217,1
DA:218,1
DA:219,1
DA:220,1
BRF:0
BRH:0
LF:174
LH:84
end_of_record
SF:/home/sautax/git/nethsm-pkcs11/pkcs11/src/api/digest.rs
FN:7,_RNvNtNtCsggOPaNFMSYu_13nethsm_pkcs113api6digest12C_DigestInit
FN:83,_RNvNtNtCsggOPaNFMSYu_13nethsm_pkcs113api6digest21C_DecryptDigestUpdate
FN:20,_RNvNtNtCsggOPaNFMSYu_13nethsm_pkcs113api6digest8C_Digest
FN:36,_RNvNtNtCsggOPaNFMSYu_13nethsm_pkcs113api6digest14C_DigestUpdate
FN:50,_RNvNtNtCsggOPaNFMSYu_13nethsm_pkcs113api6digest13C_DigestFinal
FN:64,_RNvNtNtCsggOPaNFMSYu_13nethsm_pkcs113api6digest11C_DigestKey
FN:72,_RNvNtNtCsggOPaNFMSYu_13nethsm_pkcs113api6digest21C_DigestEncryptUpdate
FN:136,_RNvNtNtNtCsjTLMFSz4sfV_13nethsm_pkcs113api6digest5testss_17test_digest_final
FN:151,_RNvNtNtNtCsjTLMFSz4sfV_13nethsm_pkcs113api6digest5testss_26test_digest_encrypt_update
FN:128,_RNvNtNtNtCsjTLMFSz4sfV_13nethsm_pkcs113api6digest5testss_18test_digest_update
FN:112,_RNvNtNtNtCsjTLMFSz4sfV_13nethsm_pkcs113api6digest5testss_11test_digest
FN:145,_RNvNtNtNtCsjTLMFSz4sfV_13nethsm_pkcs113api6digest5testss_15test_digest_key
FN:100,_RNvNtNtNtCsjTLMFSz4sfV_13nethsm_pkcs113api6digest5testss_16test_digest_init
FN:167,_RNvNtNtNtCsjTLMFSz4sfV_13nethsm_pkcs113api6digest5testss_26test_decrypt_digest_update
FN:166,_RNCNvNtNtNtCsjTLMFSz4sfV_13nethsm_pkcs113api6digest5tests26test_decrypt_digest_update0B9_
FN:127,_RNCNvNtNtNtCsjTLMFSz4sfV_13nethsm_pkcs113api6digest5tests18test_digest_update0B9_
FN:144,_RNCNvNtNtNtCsjTLMFSz4sfV_13nethsm_pkcs113api6digest5tests15test_digest_key0B9_
FN:99,_RNCNvNtNtNtCsjTLMFSz4sfV_13nethsm_pkcs113api6digest5tests16test_digest_init0B9_
FN:111,_RNCNvNtNtNtCsjTLMFSz4sfV_13nethsm_pkcs113api6digest5tests11test_digest0B9_
FN:135,_RNCNvNtNtNtCsjTLMFSz4sfV_13nethsm_pkcs113api6digest5tests17test_digest_final0B9_
FN:150,_RNCNvNtNtNtCsjTLMFSz4sfV_13nethsm_pkcs113api6digest5tests26test_digest_encrypt_update0B9_
FN:64,_RNvNtNtCsjTLMFSz4sfV_13nethsm_pkcs113api6digest11C_DigestKey
FN:72,_RNvNtNtCsjTLMFSz4sfV_13nethsm_pkcs113api6digest21C_DigestEncryptUpdate
FN:7,_RNvNtNtCsjTLMFSz4sfV_13nethsm_pkcs113api6digest12C_DigestInit
FN:83,_RNvNtNtCsjTLMFSz4sfV_13nethsm_pkcs113api6digest21C_DecryptDigestUpdate
FN:20,_RNvNtNtCsjTLMFSz4sfV_13nethsm_pkcs113api6digest8C_Digest
FN:36,_RNvNtNtCsjTLMFSz4sfV_13nethsm_pkcs113api6digest14C_DigestUpdate
FN:50,_RNvNtNtCsjTLMFSz4sfV_13nethsm_pkcs113api6digest13C_DigestFinal
FNDA:0,_RNvNtNtCsggOPaNFMSYu_13nethsm_pkcs113api6digest12C_DigestInit
FNDA:0,_RNvNtNtCsggOPaNFMSYu_13nethsm_pkcs113api6digest21C_DecryptDigestUpdate
FNDA:0,_RNvNtNtCsggOPaNFMSYu_13nethsm_pkcs113api6digest8C_Digest
FNDA:0,_RNvNtNtCsggOPaNFMSYu_13nethsm_pkcs113api6digest14C_DigestUpdate
FNDA:0,_RNvNtNtCsggOPaNFMSYu_13nethsm_pkcs113api6digest13C_DigestFinal
FNDA:0,_RNvNtNtCsggOPaNFMSYu_13nethsm_pkcs113api6digest11C_DigestKey
FNDA:0,_RNvNtNtCsggOPaNFMSYu_13nethsm_pkcs113api6digest21C_DigestEncryptUpdate
FNDA:1,_RNvNtNtNtCsjTLMFSz4sfV_13nethsm_pkcs113api6digest5testss_17test_digest_final
FNDA:1,_RNvNtNtNtCsjTLMFSz4sfV_13nethsm_pkcs113api6digest5testss_26test_digest_encrypt_update
FNDA:1,_RNvNtNtNtCsjTLMFSz4sfV_13nethsm_pkcs113api6digest5testss_18test_digest_update
FNDA:1,_RNvNtNtNtCsjTLMFSz4sfV_13nethsm_pkcs113api6digest5testss_11test_digest
FNDA:1,_RNvNtNtNtCsjTLMFSz4sfV_13nethsm_pkcs113api6digest5testss_15test_digest_key
FNDA:1,_RNvNtNtNtCsjTLMFSz4sfV_13nethsm_pkcs113api6digest5testss_16test_digest_init
FNDA:1,_RNvNtNtNtCsjTLMFSz4sfV_13nethsm_pkcs113api6digest5testss_26test_decrypt_digest_update
FNDA:1,_RNCNvNtNtNtCsjTLMFSz4sfV_13nethsm_pkcs113api6digest5tests26test_decrypt_digest_update0B9_
FNDA:1,_RNCNvNtNtNtCsjTLMFSz4sfV_13nethsm_pkcs113api6digest5tests18test_digest_update0B9_
FNDA:1,_RNCNvNtNtNtCsjTLMFSz4sfV_13nethsm_pkcs113api6digest5tests15test_digest_key0B9_
FNDA:1,_RNCNvNtNtNtCsjTLMFSz4sfV_13nethsm_pkcs113api6digest5tests16test_digest_init0B9_
FNDA:1,_RNCNvNtNtNtCsjTLMFSz4sfV_13nethsm_pkcs113api6digest5tests11test_digest0B9_
FNDA:1,_RNCNvNtNtNtCsjTLMFSz4sfV_13nethsm_pkcs113api6digest5tests17test_digest_final0B9_
FNDA:1,_RNCNvNtNtNtCsjTLMFSz4sfV_13nethsm_pkcs113api6digest5tests26test_digest_encrypt_update0B9_
FNDA:1,_RNvNtNtCsjTLMFSz4sfV_13nethsm_pkcs113api6digest11C_DigestKey
FNDA:1,_RNvNtNtCsjTLMFSz4sfV_13nethsm_pkcs113api6digest21C_DigestEncryptUpdate
FNDA:1,_RNvNtNtCsjTLMFSz4sfV_13nethsm_pkcs113api6digest12C_DigestInit
FNDA:1,_RNvNtNtCsjTLMFSz4sfV_13nethsm_pkcs113api6digest21C_DecryptDigestUpdate
FNDA:1,_RNvNtNtCsjTLMFSz4sfV_13nethsm_pkcs113api6digest8C_Digest
FNDA:1,_RNvNtNtCsjTLMFSz4sfV_13nethsm_pkcs113api6digest14C_DigestUpdate
FNDA:1,_RNvNtNtCsjTLMFSz4sfV_13nethsm_pkcs113api6digest13C_DigestFinal
FNF:21
FNH:21
DA:7,1
DA:8,1
DA:9,1
DA:10,1
DA:11,1
DA:13,1
DA:14,0
DA:15,1
DA:16,1
DA:17,1
DA:18,1
DA:20,1
DA:21,1
DA:22,1
DA:23,1
DA:24,1
DA:25,1
DA:26,1
DA:27,1
DA:29,1
DA:30,0
DA:31,1
DA:32,1
DA:33,1
DA:34,1
DA:36,1
DA:37,1
DA:38,1
DA:39,1
DA:40,1
DA:41,1
DA:43,1
DA:44,0
DA:45,1
DA:46,1
DA:47,1
DA:48,1
DA:50,1
DA:51,1
DA:52,1
DA:53,1
DA:54,1
DA:55,1
DA:57,1
DA:58,0
DA:59,1
DA:60,1
DA:61,1
DA:62,1
DA:64,1
DA:65,1
DA:66,1
DA:67,1
DA:68,1
DA:69,1
DA:70,1
DA:72,1
DA:73,1
DA:74,1
DA:75,1
DA:76,1
DA:77,1
DA:78,1
DA:79,1
DA:80,1
DA:81,1
DA:83,1
DA:84,1
DA:85,1
DA:86,1
DA:87,1
DA:88,1
DA:89,1
DA:90,1
DA:91,1
DA:92,1
DA:99,1
DA:100,1
DA:101,1
DA:102,1
DA:103,1
DA:104,1
DA:105,1
DA:106,1
DA:107,1
DA:108,1
DA:109,1
DA:111,1
DA:112,1
DA:113,1
DA:114,1
DA:115,1
DA:116,1
DA:117,1
DA:118,1
DA:119,1
DA:120,1
DA:121,1
DA:122,1
DA:123,1
DA:124,1
DA:125,1
DA:127,1
DA:128,1
DA:129,1
DA:130,1
DA:131,1
DA:132,1
DA:133,1
DA:135,1
DA:136,1
DA:137,1
DA:138,1
DA:139,1
DA:140,1
DA:141,1
DA:142,1
DA:144,1
DA:145,1
DA:146,1
DA:147,1
DA:148,1
DA:150,1
DA:151,1
DA:152,1
DA:153,1
DA:154,1
DA:155,1
DA:156,1
DA:157,1
DA:158,1
DA:159,1
DA:160,1
DA:161,1
DA:162,1
DA:163,1
DA:164,1
DA:166,1
DA:167,1
DA:168,1
DA:169,1
DA:170,1
DA:171,1
DA:172,1
DA:173,1
DA:174,1
DA:175,1
DA:176,1
DA:177,1
DA:178,1
DA:179,1
DA:180,1
BRF:0
BRH:0
LF:152
LH:148
end_of_record
SF:/home/sautax/git/nethsm-pkcs11/pkcs11/src/api/encrypt.rs
FN:43,_RNvNtNtCsggOPaNFMSYu_13nethsm_pkcs113api7encrypt9C_Encrypt
FN:111,_RNvNtNtCsggOPaNFMSYu_13nethsm_pkcs113api7encrypt15C_EncryptUpdate
FN:175,_RNvNtNtCsggOPaNFMSYu_13nethsm_pkcs113api7encrypt14C_EncryptFinal
FN:12,_RNvNtNtCsggOPaNFMSYu_13nethsm_pkcs113api7encrypt13C_EncryptInit
FN:43,_RNvNtNtCsjTLMFSz4sfV_13nethsm_pkcs113api7encrypt9C_Encrypt
FN:175,_RNvNtNtCsjTLMFSz4sfV_13nethsm_pkcs113api7encrypt14C_EncryptFinal
FN:12,_RNvNtNtCsjTLMFSz4sfV_13nethsm_pkcs113api7encrypt13C_EncryptInit
FN:111,_RNvNtNtCsjTLMFSz4sfV_13nethsm_pkcs113api7encrypt15C_EncryptUpdate
FNDA:1,_RNvNtNtCsggOPaNFMSYu_13nethsm_pkcs113api7encrypt9C_Encrypt
FNDA:0,_RNvNtNtCsggOPaNFMSYu_13nethsm_pkcs113api7encrypt15C_EncryptUpdate
FNDA:0,_RNvNtNtCsggOPaNFMSYu_13nethsm_pkcs113api7encrypt14C_EncryptFinal
FNDA:1,_RNvNtNtCsggOPaNFMSYu_13nethsm_pkcs113api7encrypt13C_EncryptInit
FNDA:0,_RNvNtNtCsjTLMFSz4sfV_13nethsm_pkcs113api7encrypt9C_Encrypt
FNDA:0,_RNvNtNtCsjTLMFSz4sfV_13nethsm_pkcs113api7encrypt14C_EncryptFinal
FNDA:0,_RNvNtNtCsjTLMFSz4sfV_13nethsm_pkcs113api7encrypt13C_EncryptInit
FNDA:0,_RNvNtNtCsjTLMFSz4sfV_13nethsm_pkcs113api7encrypt15C_EncryptUpdate
FNF:4
FNH:2
DA:12,1
DA:13,1
DA:14,1
DA:15,1
DA:16,1
DA:17,1
DA:19,1
DA:20,0
DA:21,1
DA:22,1
DA:23,1
DA:25,1
DA:27,1
DA:28,1
DA:29,0
DA:30,0
DA:31,0
DA:35,1
DA:37,1
DA:38,1
DA:39,0
DA:41,1
DA:43,1
DA:44,1
DA:45,1
DA:46,1
DA:47,1
DA:48,1
DA:49,1
DA:50,1
DA:52,1
DA:54,1
DA:55,0
DA:56,0
DA:57,1
DA:58,1
DA:59,1
DA:60,1
DA:61,1
DA:62,1
DA:63,1
DA:64,0
DA:65,0
DA:66,0
DA:67,0
DA:68,1
DA:69,1
DA:70,1
DA:71,1
DA:72,1
DA:73,1
DA:74,1
DA:75,1
DA:76,1
DA:77,0
DA:78,1
DA:80,1
DA:81,1
DA:82,0
DA:83,0
DA:84,0
DA:88,1
DA:89,1
DA:90,1
DA:91,1
DA:92,1
DA:93,1
DA:94,1
DA:95,0
DA:96,1
DA:97,1
DA:98,1
DA:99,1
DA:100,1
DA:101,1
DA:102,1
DA:103,1
DA:104,1
DA:105,1
DA:106,1
DA:107,1
DA:108,1
DA:109,1
DA:111,0
DA:112,0
DA:113,0
DA:114,0
DA:115,0
DA:116,0
DA:117,0
DA:118,0
DA:120,0
DA:122,0
DA:123,0
DA:124,0
DA:125,0
DA:126,0
DA:127,0
DA:129,0
DA:130,0
DA:131,0
DA:132,0
DA:133,0
DA:134,0
DA:135,0
DA:136,0
DA:137,0
DA:138,0
DA:139,0
DA:140,0
DA:141,0
DA:142,0
DA:143,0
DA:144,0
DA:145,0
DA:146,0
DA:148,0
DA:149,0
DA:150,0
DA:151,0
DA:152,0
DA:156,0
DA:157,0
DA:158,0
DA:159,0
DA:160,0
DA:161,0
DA:162,0
DA:163,0
DA:164,0
DA:165,0
DA:166,0
DA:167,0
DA:168,0
DA:169,0
DA:170,0
DA:171,0
DA:172,0
DA:173,0
DA:175,0
DA:176,0
DA:177,0
DA:178,0
DA:179,0
DA:180,0
DA:182,0
DA:184,0
DA:185,0
DA:186,0
DA:187,0
DA:188,0
DA:189,0
DA:190,0
DA:191,0
DA:192,0
DA:193,0
DA:194,0
DA:195,0
DA:196,0
DA:197,0
DA:198,0
DA:199,0
DA:200,0
DA:201,0
DA:202,0
DA:204,0
DA:205,0
DA:206,0
DA:207,0
DA:208,0
DA:212,0
DA:213,0
DA:214,0
DA:215,0
DA:216,0
DA:217,0
DA:218,0
DA:219,0
DA:220,0
DA:221,0
DA:222,0
DA:223,0
DA:224,0
DA:225,0
DA:226,0
DA:227,0
DA:228,0
DA:229,0
DA:230,0
DA:231,0
DA:232,0
DA:233,0
BRF:0
BRH:0
LF:192
LH:67
end_of_record
SF:/home/sautax/git/nethsm-pkcs11/pkcs11/src/api/generation.rs
FN:154,_RNvNtNtCsggOPaNFMSYu_13nethsm_pkcs113api10generation9C_WrapKey
FN:166,_RNvNtNtCsggOPaNFMSYu_13nethsm_pkcs113api10generation11C_UnwrapKey
FN:180,_RNvNtNtCsggOPaNFMSYu_13nethsm_pkcs113api10generation11C_DeriveKey
FN:15,_RNvNtNtCsggOPaNFMSYu_13nethsm_pkcs113api10generation13C_GenerateKey
FN:193,_RNvNtNtCsggOPaNFMSYu_13nethsm_pkcs113api10generation12C_SeedRandom
FN:69,_RNvNtNtCsggOPaNFMSYu_13nethsm_pkcs113api10generation17C_GenerateKeyPair
FN:202,_RNvNtNtCsggOPaNFMSYu_13nethsm_pkcs113api10generation16C_GenerateRandom
FN:122,_RNCNvNtNtCsggOPaNFMSYu_13nethsm_pkcs113api10generation17C_GenerateKeyPair0B7_
FN:252,_RNCNvNtNtCsggOPaNFMSYu_13nethsm_pkcs113api10generation16C_GenerateRandoms_0B7_
FN:256,_RNCNCNCNvNtNtCsggOPaNFMSYu_13nethsm_pkcs113api10generation16C_GenerateRandoms_000Bb_
FN:240,_RNCNCNvNtNtCsggOPaNFMSYu_13nethsm_pkcs113api10generation16C_GenerateRandom00B9_
FN:238,_RNCNvNtNtCsggOPaNFMSYu_13nethsm_pkcs113api10generation16C_GenerateRandom0B7_
FN:154,_RNvNtNtCsjTLMFSz4sfV_13nethsm_pkcs113api10generation9C_WrapKey
FN:166,_RNvNtNtCsjTLMFSz4sfV_13nethsm_pkcs113api10generation11C_UnwrapKey
FN:180,_RNvNtNtCsjTLMFSz4sfV_13nethsm_pkcs113api10generation11C_DeriveKey
FN:15,_RNvNtNtCsjTLMFSz4sfV_13nethsm_pkcs113api10generation13C_GenerateKey
FN:193,_RNvNtNtCsjTLMFSz4sfV_13nethsm_pkcs113api10generation12C_SeedRandom
FN:69,_RNvNtNtCsjTLMFSz4sfV_13nethsm_pkcs113api10generation17C_GenerateKeyPair
FN:202,_RNvNtNtCsjTLMFSz4sfV_13nethsm_pkcs113api10generation16C_GenerateRandom
FN:238,_RNCNvNtNtCsjTLMFSz4sfV_13nethsm_pkcs113api10generation16C_GenerateRandom0B7_
FN:240,_RNCNCNvNtNtCsjTLMFSz4sfV_13nethsm_pkcs113api10generation16C_GenerateRandom00B9_
FN:310,_RNCNvNtNtNtCsjTLMFSz4sfV_13nethsm_pkcs113api10generation5tests15test_unwrap_key0B9_
FN:325,_RNCNvNtNtNtCsjTLMFSz4sfV_13nethsm_pkcs113api10generation5tests15test_derive_key0B9_
FN:297,_RNCNvNtNtNtCsjTLMFSz4sfV_13nethsm_pkcs113api10generation5tests13test_wrap_key0B9_
FN:338,_RNCNvNtNtNtCsjTLMFSz4sfV_13nethsm_pkcs113api10generation5tests16test_seed_random0B9_
FN:339,_RNvNtNtNtCsjTLMFSz4sfV_13nethsm_pkcs113api10generation5testss_16test_seed_random
FN:311,_RNvNtNtNtCsjTLMFSz4sfV_13nethsm_pkcs113api10generation5testss_15test_unwrap_key
FN:326,_RNvNtNtNtCsjTLMFSz4sfV_13nethsm_pkcs113api10generation5testss_15test_derive_key
FN:298,_RNvNtNtNtCsjTLMFSz4sfV_13nethsm_pkcs113api10generation5testss_13test_wrap_key
FN:252,_RNCNvNtNtCsjTLMFSz4sfV_13nethsm_pkcs113api10generation16C_GenerateRandoms_0B7_
FN:256,_RNCNCNCNvNtNtCsjTLMFSz4sfV_13nethsm_pkcs113api10generation16C_GenerateRandoms_000Bb_
FN:122,_RNCNvNtNtCsjTLMFSz4sfV_13nethsm_pkcs113api10generation17C_GenerateKeyPair0B7_
FNDA:0,_RNvNtNtCsggOPaNFMSYu_13nethsm_pkcs113api10generation9C_WrapKey
FNDA:0,_RNvNtNtCsggOPaNFMSYu_13nethsm_pkcs113api10generation11C_UnwrapKey
FNDA:0,_RNvNtNtCsggOPaNFMSYu_13nethsm_pkcs113api10generation11C_DeriveKey
FNDA:1,_RNvNtNtCsggOPaNFMSYu_13nethsm_pkcs113api10generation13C_GenerateKey
FNDA:1,_RNvNtNtCsggOPaNFMSYu_13nethsm_pkcs113api10generation12C_SeedRandom
FNDA:6,_RNvNtNtCsggOPaNFMSYu_13nethsm_pkcs113api10generation17C_GenerateKeyPair
FNDA:6,_RNvNtNtCsggOPaNFMSYu_13nethsm_pkcs113api10generation16C_GenerateRandom
FNDA:47,_RNCNvNtNtCsggOPaNFMSYu_13nethsm_pkcs113api10generation17C_GenerateKeyPair0B7_
FNDA:5,_RNCNvNtNtCsggOPaNFMSYu_13nethsm_pkcs113api10generation16C_GenerateRandoms_0B7_
FNDA:5,_RNCNCNCNvNtNtCsggOPaNFMSYu_13nethsm_pkcs113api10generation16C_GenerateRandoms_000Bb_
FNDA:0,_RNCNCNvNtNtCsggOPaNFMSYu_13nethsm_pkcs113api10generation16C_GenerateRandom00B9_
FNDA:0,_RNCNvNtNtCsggOPaNFMSYu_13nethsm_pkcs113api10generation16C_GenerateRandom0B7_
FNDA:1,_RNvNtNtCsjTLMFSz4sfV_13nethsm_pkcs113api10generation9C_WrapKey
FNDA:1,_RNvNtNtCsjTLMFSz4sfV_13nethsm_pkcs113api10generation11C_UnwrapKey
FNDA:1,_RNvNtNtCsjTLMFSz4sfV_13nethsm_pkcs113api10generation11C_DeriveKey
FNDA:0,_RNvNtNtCsjTLMFSz4sfV_13nethsm_pkcs113api10generation13C_GenerateKey
FNDA:1,_RNvNtNtCsjTLMFSz4sfV_13nethsm_pkcs113api10generation12C_SeedRandom
FNDA:0,_RNvNtNtCsjTLMFSz4sfV_13nethsm_pkcs113api10generation17C_GenerateKeyPair
FNDA:0,_RNvNtNtCsjTLMFSz4sfV_13nethsm_pkcs113api10generation16C_GenerateRandom
FNDA:0,_RNCNvNtNtCsjTLMFSz4sfV_13nethsm_pkcs113api10generation16C_GenerateRandom0B7_
FNDA:0,_RNCNCNvNtNtCsjTLMFSz4sfV_13nethsm_pkcs113api10generation16C_GenerateRandom00B9_
FNDA:1,_RNCNvNtNtNtCsjTLMFSz4sfV_13nethsm_pkcs113api10generation5tests15test_unwrap_key0B9_
FNDA:1,_RNCNvNtNtNtCsjTLMFSz4sfV_13nethsm_pkcs113api10generation5tests15test_derive_key0B9_
FNDA:1,_RNCNvNtNtNtCsjTLMFSz4sfV_13nethsm_pkcs113api10generation5tests13test_wrap_key0B9_
FNDA:1,_RNCNvNtNtNtCsjTLMFSz4sfV_13nethsm_pkcs113api10generation5tests16test_seed_random0B9_
FNDA:1,_RNvNtNtNtCsjTLMFSz4sfV_13nethsm_pkcs113api10generation5testss_16test_seed_random
FNDA:1,_RNvNtNtNtCsjTLMFSz4sfV_13nethsm_pkcs113api10generation5testss_15test_unwrap_key
FNDA:1,_RNvNtNtNtCsjTLMFSz4sfV_13nethsm_pkcs113api10generation5testss_15test_derive_key
FNDA:1,_RNvNtNtNtCsjTLMFSz4sfV_13nethsm_pkcs113api10generation5testss_13test_wrap_key
FNDA:0,_RNCNvNtNtCsjTLMFSz4sfV_13nethsm_pkcs113api10generation16C_GenerateRandoms_0B7_
FNDA:0,_RNCNCNCNvNtNtCsjTLMFSz4sfV_13nethsm_pkcs113api10generation16C_GenerateRandoms_000Bb_
FNDA:0,_RNCNvNtNtCsjTLMFSz4sfV_13nethsm_pkcs113api10generation17C_GenerateKeyPair0B7_
FNF:20
FNH:18
DA:15,1
DA:16,1
DA:17,1
DA:18,1
DA:19,1
DA:20,1
DA:21,1
DA:22,1
DA:24,1
DA:25,0
DA:26,1
DA:27,1
DA:28,1
DA:30,1
DA:31,1
DA:32,1
DA:33,1
DA:35,1
DA:36,1
DA:38,1
DA:39,1
DA:40,0
DA:41,0
DA:42,0
DA:46,1
DA:47,1
DA:48,0
DA:49,0
DA:50,0
DA:54,1
DA:55,0
DA:56,0
DA:59,0
DA:60,1
DA:61,1
DA:62,1
DA:63,1
DA:64,1
DA:65,1
DA:66,1
DA:67,1
DA:69,6
DA:70,6
DA:71,6
DA:72,6
DA:73,6
DA:74,6
DA:75,6
DA:76,6
DA:77,6
DA:78,6
DA:79,6
DA:81,6
DA:82,6
DA:83,6
DA:84,6
DA:85,6
DA:87,0
DA:88,6
DA:89,6
DA:90,6
DA:92,6
DA:93,6
DA:94,6
DA:95,6
DA:97,6
DA:98,6
DA:100,6
DA:101,6
DA:102,0
DA:103,0
DA:104,0
DA:108,6
DA:109,6
DA:110,6
DA:111,6
DA:112,6
DA:113,6
DA:114,6
DA:115,6
DA:116,6
DA:117,6
DA:118,6
DA:119,6
DA:120,6
DA:121,6
DA:122,47
DA:123,47
DA:124,0
DA:125,0
DA:126,0
DA:128,47
DA:130,6
DA:131,6
DA:132,0
DA:133,0
DA:134,0
DA:138,6
DA:139,0
DA:140,0
DA:143,0
DA:144,6
DA:145,6
DA:146,6
DA:147,6
DA:148,6
DA:149,6
DA:150,6
DA:151,6
DA:152,6
DA:154,1
DA:155,1
DA:156,1
DA:157,1
DA:158,1
DA:159,1
DA:160,1
DA:161,1
DA:162,1
DA:163,1
DA:164,1
DA:166,1
DA:167,1
DA:168,1
DA:169,1
DA:170,1
DA:171,1
DA:172,1
DA:173,1
DA:174,1
DA:175,1
DA:176,1
DA:177,1
DA:178,1
DA:180,1
DA:181,1
DA:182,1
DA:183,1
DA:184,1
DA:185,1
DA:186,1
DA:187,1
DA:188,1
DA:189,1
DA:190,1
DA:193,2
DA:194,2
DA:195,2
DA:196,2
DA:197,2
DA:198,2
DA:199,2
DA:200,2
DA:202,6
DA:203,6
DA:204,6
DA:205,6
DA:206,6
DA:207,6
DA:209,6
DA:210,0
DA:211,6
DA:212,6
DA:213,6
DA:214,1
DA:215,5
DA:216,5
DA:217,5
DA:218,0
DA:219,0
DA:223,0
DA:224,5
DA:225,5
DA:227,5
DA:228,5
DA:229,5
DA:231,0
DA:232,0
DA:235,0
DA:236,5
DA:237,5
DA:238,5
DA:239,0
DA:240,0
DA:241,0
DA:242,0
DA:243,0
DA:244,0
DA:245,0
DA:246,0
DA:247,0
DA:248,0
DA:249,0
DA:250,0
DA:252,5
DA:253,5
DA:254,5
DA:255,5
DA:256,5
DA:257,5
DA:258,5
DA:259,5
DA:260,5
DA:261,5
DA:262,5
DA:263,10
DA:264,5
DA:265,5
DA:266,5
DA:267,10
DA:268,5
DA:269,5
DA:270,0
DA:271,0
DA:272,0
DA:278,5
DA:279,5
DA:280,0
DA:281,0
DA:282,0
DA:286,5
DA:287,5
DA:288,5
DA:289,5
DA:290,5
DA:291,6
DA:297,1
DA:298,1
DA:299,1
DA:300,1
DA:301,1
DA:302,1
DA:303,1
DA:304,1
DA:305,1
DA:306,1
DA:307,1
DA:308,1
DA:310,1
DA:311,1
DA:312,1
DA:313,1
DA:314,1
DA:315,1
DA:316,1
DA:317,1
DA:318,1
DA:319,1
DA:320,1
DA:321,1
DA:322,1
DA:323,1
DA:325,1
DA:326,1
DA:327,1
DA:328,1
DA:329,1
DA:330,1
DA:331,1
DA:332,1
DA:333,1
DA:334,1
DA:335,1
DA:336,1
DA:338,1
DA:339,1
DA:340,1
DA:341,1
DA:342,1
BRF:0
BRH:0
LF:277
LH:227
end_of_record
SF:/home/sautax/git/nethsm-pkcs11/pkcs11/src/api/mod.rs
FN:38,_RNvNtCsggOPaNFMSYu_13nethsm_pkcs113api12C_Initialize
FN:72,_RNvNtCsggOPaNFMSYu_13nethsm_pkcs113api10C_Finalize
FN:80,_RNvNtCsggOPaNFMSYu_13nethsm_pkcs113api9C_GetInfo
FN:24,C_GetFunctionList
FN:38,_RNvNtCsjTLMFSz4sfV_13nethsm_pkcs113api12C_Initialize
FN:80,_RNvNtCsjTLMFSz4sfV_13nethsm_pkcs113api9C_GetInfo
FN:72,_RNvNtCsjTLMFSz4sfV_13nethsm_pkcs113api10C_Finalize
FNDA:36,_RNvNtCsggOPaNFMSYu_13nethsm_pkcs113api12C_Initialize
FNDA:35,_RNvNtCsggOPaNFMSYu_13nethsm_pkcs113api10C_Finalize
FNDA:2,_RNvNtCsggOPaNFMSYu_13nethsm_pkcs113api9C_GetInfo
FNDA:36,C_GetFunctionList
FNDA:0,_RNvNtCsjTLMFSz4sfV_13nethsm_pkcs113api12C_Initialize
FNDA:0,_RNvNtCsjTLMFSz4sfV_13nethsm_pkcs113api9C_GetInfo
FNDA:0,_RNvNtCsjTLMFSz4sfV_13nethsm_pkcs113api10C_Finalize
FNF:4
FNH:4
DA:24,36
DA:25,36
DA:26,36
DA:27,36
DA:28,36
DA:29,0
DA:30,36
DA:31,36
DA:32,36
DA:33,36
DA:34,36
DA:35,36
DA:36,36
DA:38,36
DA:39,36
DA:40,36
DA:41,0
DA:42,36
DA:44,36
DA:45,36
DA:46,36
DA:47,36
DA:49,2
DA:50,2
DA:51,2
DA:52,2
DA:53,2
DA:54,0
DA:55,2
DA:56,2
DA:57,2
DA:58,2
DA:59,2
DA:60,0
DA:61,2
DA:62,2
DA:63,2
DA:64,2
DA:65,0
DA:66,2
DA:67,34
DA:69,36
DA:70,36
DA:72,35
DA:73,35
DA:74,35
DA:75,0
DA:76,35
DA:77,35
DA:78,35
DA:80,2
DA:81,2
DA:82,2
DA:83,0
DA:84,2
DA:85,2
DA:86,2
DA:87,2
DA:88,2
DA:89,2
DA:90,2
DA:91,2
DA:92,2
DA:93,2
DA:94,2
DA:95,2
DA:96,2
DA:97,2
DA:98,2
BRF:0
BRH:0
LF:69
LH:62
end_of_record
SF:/home/sautax/git/nethsm-pkcs11/pkcs11/src/api/object.rs
FN:191,_RNvNtNtCsggOPaNFMSYu_13nethsm_pkcs113api6object15C_DestroyObject
FN:70,_RNvNtNtCsggOPaNFMSYu_13nethsm_pkcs113api6object18C_FindObjectsFinal
FN:205,_RNvNtNtCsggOPaNFMSYu_13nethsm_pkcs113api6object19C_SetAttributeValue
FN:80,_RNvNtNtCsggOPaNFMSYu_13nethsm_pkcs113api6object19C_GetAttributeValue
FN:116,_RNvNtNtCsggOPaNFMSYu_13nethsm_pkcs113api6object15C_GetObjectSize
FN:144,_RNvNtNtCsggOPaNFMSYu_13nethsm_pkcs113api6object14C_CreateObject
FN:11,_RNvNtNtCsggOPaNFMSYu_13nethsm_pkcs113api6object17C_FindObjectsInit
FN:180,_RNvNtNtCsggOPaNFMSYu_13nethsm_pkcs113api6object12C_CopyObject
FN:36,_RNvNtNtCsggOPaNFMSYu_13nethsm_pkcs113api6object13C_FindObjects
FN:11,_RNvNtNtCsjTLMFSz4sfV_13nethsm_pkcs113api6object17C_FindObjectsInit
FN:180,_RNvNtNtCsjTLMFSz4sfV_13nethsm_pkcs113api6object12C_CopyObject
FN:36,_RNvNtNtCsjTLMFSz4sfV_13nethsm_pkcs113api6object13C_FindObjects
FN:191,_RNvNtNtCsjTLMFSz4sfV_13nethsm_pkcs113api6object15C_DestroyObject
FN:70,_RNvNtNtCsjTLMFSz4sfV_13nethsm_pkcs113api6object18C_FindObjectsFinal
FN:205,_RNvNtNtCsjTLMFSz4sfV_13nethsm_pkcs113api6object19C_SetAttributeValue
FN:80,_RNvNtNtCsjTLMFSz4sfV_13nethsm_pkcs113api6object19C_GetAttributeValue
FN:116,_RNvNtNtCsjTLMFSz4sfV_13nethsm_pkcs113api6object15C_GetObjectSize
FN:144,_RNvNtNtCsjTLMFSz4sfV_13nethsm_pkcs113api6object14C_CreateObject
FN:264,_RNvNtNtNtCsjTLMFSz4sfV_13nethsm_pkcs113api6object5testss_16test_copy_object
FN:263,_RNCNvNtNtNtCsjTLMFSz4sfV_13nethsm_pkcs113api6object5tests16test_copy_object0B9_
FNDA:1,_RNvNtNtCsggOPaNFMSYu_13nethsm_pkcs113api6object15C_DestroyObject
FNDA:78,_RNvNtNtCsggOPaNFMSYu_13nethsm_pkcs113api6object18C_FindObjectsFinal
FNDA:0,_RNvNtNtCsggOPaNFMSYu_13nethsm_pkcs113api6object19C_SetAttributeValue
FNDA:497,_RNvNtNtCsggOPaNFMSYu_13nethsm_pkcs113api6object19C_GetAttributeValue
FNDA:0,_RNvNtNtCsggOPaNFMSYu_13nethsm_pkcs113api6object15C_GetObjectSize
FNDA:4,_RNvNtNtCsggOPaNFMSYu_13nethsm_pkcs113api6object14C_CreateObject
FNDA:78,_RNvNtNtCsggOPaNFMSYu_13nethsm_pkcs113api6object17C_FindObjectsInit
FNDA:0,_RNvNtNtCsggOPaNFMSYu_13nethsm_pkcs113api6object12C_CopyObject
FNDA:288,_RNvNtNtCsggOPaNFMSYu_13nethsm_pkcs113api6object13C_FindObjects
FNDA:0,_RNvNtNtCsjTLMFSz4sfV_13nethsm_pkcs113api6object17C_FindObjectsInit
FNDA:1,_RNvNtNtCsjTLMFSz4sfV_13nethsm_pkcs113api6object12C_CopyObject
FNDA:0,_RNvNtNtCsjTLMFSz4sfV_13nethsm_pkcs113api6object13C_FindObjects
FNDA:0,_RNvNtNtCsjTLMFSz4sfV_13nethsm_pkcs113api6object15C_DestroyObject
FNDA:0,_RNvNtNtCsjTLMFSz4sfV_13nethsm_pkcs113api6object18C_FindObjectsFinal
FNDA:0,_RNvNtNtCsjTLMFSz4sfV_13nethsm_pkcs113api6object19C_SetAttributeValue
FNDA:0,_RNvNtNtCsjTLMFSz4sfV_13nethsm_pkcs113api6object19C_GetAttributeValue
FNDA:0,_RNvNtNtCsjTLMFSz4sfV_13nethsm_pkcs113api6object15C_GetObjectSize
FNDA:0,_RNvNtNtCsjTLMFSz4sfV_13nethsm_pkcs113api6object14C_CreateObject
FNDA:1,_RNvNtNtNtCsjTLMFSz4sfV_13nethsm_pkcs113api6object5testss_16test_copy_object
FNDA:1,_RNCNvNtNtNtCsjTLMFSz4sfV_13nethsm_pkcs113api6object5tests16test_copy_object0B9_
FNF:11
FNH:9
DA:11,78
DA:12,78
DA:13,78
DA:14,78
DA:15,78
DA:16,78
DA:18,78
DA:19,0
DA:20,78
DA:21,78
DA:22,78
DA:24,78
DA:25,78
DA:27,0
DA:29,78
DA:30,78
DA:31,78
DA:32,0
DA:34,78
DA:36,288
DA:37,288
DA:38,288
DA:39,288
DA:40,288
DA:41,288
DA:42,288
DA:44,288
DA:45,0
DA:46,288
DA:47,288
DA:48,288
DA:50,288
DA:51,288
DA:52,288
DA:53,0
DA:54,0
DA:57,288
DA:59,288
DA:60,288
DA:61,288
DA:62,288
DA:63,288
DA:64,288
DA:65,288
DA:66,288
DA:67,288
DA:68,288
DA:69,288
DA:70,78
DA:71,78
DA:72,78
DA:73,78
DA:74,78
DA:76,78
DA:77,78
DA:78,78
DA:79,78
DA:80,497
DA:81,497
DA:82,497
DA:83,497
DA:84,497
DA:85,497
DA:86,497
DA:88,497
DA:89,0
DA:90,497
DA:91,497
DA:92,497
DA:94,497
DA:95,497
DA:97,0
DA:98,0
DA:101,0
DA:105,497
DA:106,0
DA:111,497
DA:112,497
DA:113,497
DA:114,497
DA:115,497
DA:116,0
DA:117,0
DA:118,0
DA:119,0
DA:120,0
DA:121,0
DA:123,0
DA:124,0
DA:125,0
DA:126,0
DA:127,0
DA:129,0
DA:130,0
DA:132,0
DA:133,0
DA:137,0
DA:138,0
DA:139,0
DA:140,0
DA:141,0
DA:142,0
DA:144,4
DA:145,4
DA:146,4
DA:147,4
DA:148,4
DA:149,4
DA:150,4
DA:152,4
DA:153,0
DA:154,4
DA:155,4
DA:156,4
DA:158,4
DA:159,4
DA:161,4
DA:162,4
DA:163,0
DA:164,0
DA:168,4
DA:169,0
DA:170,0
DA:171,4
DA:172,4
DA:173,4
DA:174,4
DA:175,4
DA:176,4
DA:177,4
DA:178,4
DA:180,1
DA:181,1
DA:182,1
DA:183,1
DA:184,1
DA:185,1
DA:186,1
DA:187,1
DA:188,1
DA:189,1
DA:191,1
DA:192,1
DA:193,1
DA:194,1
DA:195,1
DA:197,1
DA:199,1
DA:200,1
DA:201,0
DA:203,1
DA:205,0
DA:206,0
DA:207,0
DA:208,0
DA:209,0
DA:210,0
DA:211,0
DA:213,0
DA:214,0
DA:215,0
DA:216,0
DA:217,0
DA:218,0
DA:219,0
DA:220,0
DA:221,0
DA:222,0
DA:227,0
DA:228,0
DA:230,0
DA:231,0
DA:233,0
DA:234,0
DA:237,0
DA:241,0
DA:242,0
DA:243,0
DA:245,0
DA:248,0
DA:251,0
DA:252,0
DA:253,0
DA:255,0
DA:257,0
DA:263,1
DA:264,1
DA:265,1
DA:266,1
DA:267,1
BRF:0
BRH:0
LF:190
LH:118
end_of_record
SF:/home/sautax/git/nethsm-pkcs11/pkcs11/src/api/pin.rs
FN:9,_RNvNtNtCsggOPaNFMSYu_13nethsm_pkcs113api3pin9C_InitPIN
FN:18,_RNvNtNtCsggOPaNFMSYu_13nethsm_pkcs113api3pin8C_SetPIN
FN:18,_RNvNtNtCsjTLMFSz4sfV_13nethsm_pkcs113api3pin8C_SetPIN
FN:9,_RNvNtNtCsjTLMFSz4sfV_13nethsm_pkcs113api3pin9C_InitPIN
FN:69,_RNCNvNtNtNtCsjTLMFSz4sfV_13nethsm_pkcs113api3pin5tests13test_init_pin0B9_
FN:70,_RNvNtNtNtCsjTLMFSz4sfV_13nethsm_pkcs113api3pin5testss_13test_init_pin
FNDA:0,_RNvNtNtCsggOPaNFMSYu_13nethsm_pkcs113api3pin9C_InitPIN
FNDA:1,_RNvNtNtCsggOPaNFMSYu_13nethsm_pkcs113api3pin8C_SetPIN
FNDA:0,_RNvNtNtCsjTLMFSz4sfV_13nethsm_pkcs113api3pin8C_SetPIN
FNDA:1,_RNvNtNtCsjTLMFSz4sfV_13nethsm_pkcs113api3pin9C_InitPIN
FNDA:1,_RNCNvNtNtNtCsjTLMFSz4sfV_13nethsm_pkcs113api3pin5tests13test_init_pin0B9_
FNDA:1,_RNvNtNtNtCsjTLMFSz4sfV_13nethsm_pkcs113api3pin5testss_13test_init_pin
FNF:4
FNH:4
DA:9,1
DA:10,1
DA:11,1
DA:12,1
DA:13,1
DA:14,1
DA:15,1
DA:16,1
DA:18,1
DA:19,1
DA:20,1
DA:21,1
DA:22,1
DA:23,1
DA:24,1
DA:25,1
DA:26,1
DA:28,1
DA:29,0
DA:30,1
DA:31,1
DA:32,1
DA:33,1
DA:37,1
DA:38,1
DA:39,0
DA:42,1
DA:43,1
DA:44,0
DA:47,1
DA:48,0
DA:49,1
DA:50,1
DA:51,1
DA:52,1
DA:53,1
DA:55,0
DA:56,0
DA:59,0
DA:60,1
DA:61,1
DA:62,1
DA:69,1
DA:70,1
DA:71,1
DA:72,1
DA:73,1
BRF:0
BRH:0
LF:47
LH:40
end_of_record
SF:/home/sautax/git/nethsm-pkcs11/pkcs11/src/api/session.rs
FN:121,_RNvNtNtCsggOPaNFMSYu_13nethsm_pkcs113api7session19C_GetOperationState
FN:130,_RNvNtNtCsggOPaNFMSYu_13nethsm_pkcs113api7session19C_SetOperationState
FN:7,_RNvNtNtCsggOPaNFMSYu_13nethsm_pkcs113api7session13C_OpenSession
FN:141,_RNvNtNtCsggOPaNFMSYu_13nethsm_pkcs113api7session19C_GetFunctionStatus
FN:49,_RNvNtNtCsggOPaNFMSYu_13nethsm_pkcs113api7session14C_CloseSession
FN:148,_RNvNtNtCsggOPaNFMSYu_13nethsm_pkcs113api7session16C_CancelFunction
FN:66,_RNvNtNtCsggOPaNFMSYu_13nethsm_pkcs113api7session18C_CloseAllSessions
FN:84,_RNvNtNtCsggOPaNFMSYu_13nethsm_pkcs113api7session16C_GetSessionInfo
FN:177,_RNCNvNtNtNtCsjTLMFSz4sfV_13nethsm_pkcs113api7session5tests20test_cancel_function0B9_
FN:159,_RNCNvNtNtNtCsjTLMFSz4sfV_13nethsm_pkcs113api7session5tests24test_get_operation_state0B9_
FN:171,_RNCNvNtNtNtCsjTLMFSz4sfV_13nethsm_pkcs113api7session5tests24test_get_function_status0B9_
FN:165,_RNCNvNtNtNtCsjTLMFSz4sfV_13nethsm_pkcs113api7session5tests24test_set_operation_state0B9_
FN:166,_RNvNtNtNtCsjTLMFSz4sfV_13nethsm_pkcs113api7session5testss_24test_set_operation_state
FN:178,_RNvNtNtNtCsjTLMFSz4sfV_13nethsm_pkcs113api7session5testss_20test_cancel_function
FN:160,_RNvNtNtNtCsjTLMFSz4sfV_13nethsm_pkcs113api7session5testss_24test_get_operation_state
FN:172,_RNvNtNtNtCsjTLMFSz4sfV_13nethsm_pkcs113api7session5testss_24test_get_function_status
FN:121,_RNvNtNtCsjTLMFSz4sfV_13nethsm_pkcs113api7session19C_GetOperationState
FN:130,_RNvNtNtCsjTLMFSz4sfV_13nethsm_pkcs113api7session19C_SetOperationState
FN:7,_RNvNtNtCsjTLMFSz4sfV_13nethsm_pkcs113api7session13C_OpenSession
FN:141,_RNvNtNtCsjTLMFSz4sfV_13nethsm_pkcs113api7session19C_GetFunctionStatus
FN:49,_RNvNtNtCsjTLMFSz4sfV_13nethsm_pkcs113api7session14C_CloseSession
FN:148,_RNvNtNtCsjTLMFSz4sfV_13nethsm_pkcs113api7session16C_CancelFunction
FN:66,_RNvNtNtCsjTLMFSz4sfV_13nethsm_pkcs113api7session18C_CloseAllSessions
FN:84,_RNvNtNtCsjTLMFSz4sfV_13nethsm_pkcs113api7session16C_GetSessionInfo
FNDA:0,_RNvNtNtCsggOPaNFMSYu_13nethsm_pkcs113api7session19C_GetOperationState
FNDA:0,_RNvNtNtCsggOPaNFMSYu_13nethsm_pkcs113api7session19C_SetOperationState
FNDA:42,_RNvNtNtCsggOPaNFMSYu_13nethsm_pkcs113api7session13C_OpenSession
FNDA:0,_RNvNtNtCsggOPaNFMSYu_13nethsm_pkcs113api7session19C_GetFunctionStatus
FNDA:41,_RNvNtNtCsggOPaNFMSYu_13nethsm_pkcs113api7session14C_CloseSession
FNDA:0,_RNvNtNtCsggOPaNFMSYu_13nethsm_pkcs113api7session16C_CancelFunction
FNDA:0,_RNvNtNtCsggOPaNFMSYu_13nethsm_pkcs113api7session18C_CloseAllSessions
FNDA:4,_RNvNtNtCsggOPaNFMSYu_13nethsm_pkcs113api7session16C_GetSessionInfo
FNDA:1,_RNCNvNtNtNtCsjTLMFSz4sfV_13nethsm_pkcs113api7session5tests20test_cancel_function0B9_
FNDA:1,_RNCNvNtNtNtCsjTLMFSz4sfV_13nethsm_pkcs113api7session5tests24test_get_operation_state0B9_
FNDA:1,_RNCNvNtNtNtCsjTLMFSz4sfV_13nethsm_pkcs113api7session5tests24test_get_function_status0B9_
FNDA:1,_RNCNvNtNtNtCsjTLMFSz4sfV_13nethsm_pkcs113api7session5tests24test_set_operation_state0B9_
FNDA:1,_RNvNtNtNtCsjTLMFSz4sfV_13nethsm_pkcs113api7session5testss_24test_set_operation_state
FNDA:1,_RNvNtNtNtCsjTLMFSz4sfV_13nethsm_pkcs113api7session5testss_20test_cancel_function
FNDA:1,_RNvNtNtNtCsjTLMFSz4sfV_13nethsm_pkcs113api7session5testss_24test_get_operation_state
FNDA:1,_RNvNtNtNtCsjTLMFSz4sfV_13nethsm_pkcs113api7session5testss_24test_get_function_status
FNDA:1,_RNvNtNtCsjTLMFSz4sfV_13nethsm_pkcs113api7session19C_GetOperationState
FNDA:1,_RNvNtNtCsjTLMFSz4sfV_13nethsm_pkcs113api7session19C_SetOperationState
FNDA:0,_RNvNtNtCsjTLMFSz4sfV_13nethsm_pkcs113api7session13C_OpenSession
FNDA:1,_RNvNtNtCsjTLMFSz4sfV_13nethsm_pkcs113api7session19C_GetFunctionStatus
FNDA:0,_RNvNtNtCsjTLMFSz4sfV_13nethsm_pkcs113api7session14C_CloseSession
FNDA:1,_RNvNtNtCsjTLMFSz4sfV_13nethsm_pkcs113api7session16C_CancelFunction
FNDA:0,_RNvNtNtCsjTLMFSz4sfV_13nethsm_pkcs113api7session18C_CloseAllSessions
FNDA:0,_RNvNtNtCsjTLMFSz4sfV_13nethsm_pkcs113api7session16C_GetSessionInfo
FNF:16
FNH:15
DA:7,42
DA:8,42
DA:9,42
DA:10,42
DA:11,42
DA:12,42
DA:13,42
DA:14,42
DA:15,0
DA:20,42
DA:21,0
DA:22,42
DA:23,42
DA:24,42
DA:25,0
DA:26,42
DA:28,42
DA:29,42
DA:31,0
DA:32,0
DA:37,42
DA:38,42
DA:39,42
DA:40,42
DA:42,42
DA:43,42
DA:44,42
DA:45,42
DA:46,42
DA:47,42
DA:49,41
DA:50,41
DA:52,41
DA:53,41
DA:54,41
DA:55,41
DA:56,0
DA:57,0
DA:60,0
DA:61,41
DA:62,41
DA:63,41
DA:64,41
DA:66,0
DA:67,0
DA:69,0
DA:70,0
DA:71,0
DA:74,0
DA:75,0
DA:77,0
DA:79,0
DA:80,0
DA:81,0
DA:82,0
DA:84,4
DA:85,4
DA:86,4
DA:87,4
DA:88,4
DA:89,0
DA:93,4
DA:94,0
DA:95,4
DA:97,4
DA:99,4
DA:101,4
DA:102,4
DA:104,0
DA:105,0
DA:108,0
DA:112,4
DA:114,4
DA:115,4
DA:116,4
DA:117,4
DA:118,4
DA:119,4
DA:121,1
DA:122,1
DA:123,1
DA:124,1
DA:125,1
DA:126,1
DA:127,1
DA:128,1
DA:130,1
DA:131,1
DA:132,1
DA:133,1
DA:134,1
DA:135,1
DA:136,1
DA:137,1
DA:138,1
DA:139,1
DA:141,1
DA:142,1
DA:143,1
DA:144,1
DA:145,1
DA:146,1
DA:148,1
DA:149,1
DA:150,1
DA:151,1
DA:152,1
DA:153,1
DA:159,1
DA:160,1
DA:161,1
DA:162,1
DA:163,1
DA:165,1
DA:166,1
DA:167,1
DA:168,1
DA:169,1
DA:171,1
DA:172,1
DA:173,1
DA:174,1
DA:175,1
DA:177,1
DA:178,1
DA:179,1
DA:180,1
DA:181,1
BRF:0
BRH:0
LF:128
LH:103
end_of_record
SF:/home/sautax/git/nethsm-pkcs11/pkcs11/src/api/sign.rs
FN:199,_RNvNtNtCsggOPaNFMSYu_13nethsm_pkcs113api4sign13C_SignRecover
FN:9,_RNvNtNtCsggOPaNFMSYu_13nethsm_pkcs113api4sign10C_SignInit
FN:210,_RNvNtNtCsggOPaNFMSYu_13nethsm_pkcs113api4sign19C_SignEncryptUpdate
FN:42,_RNvNtNtCsggOPaNFMSYu_13nethsm_pkcs113api4sign6C_Sign
FN:108,_RNvNtNtCsggOPaNFMSYu_13nethsm_pkcs113api4sign12C_SignUpdate
FN:133,_RNvNtNtCsggOPaNFMSYu_13nethsm_pkcs113api4sign11C_SignFinal
FN:190,_RNvNtNtCsggOPaNFMSYu_13nethsm_pkcs113api4sign17C_SignRecoverInit
FN:133,_RNvNtNtCsjTLMFSz4sfV_13nethsm_pkcs113api4sign11C_SignFinal
FN:190,_RNvNtNtCsjTLMFSz4sfV_13nethsm_pkcs113api4sign17C_SignRecoverInit
FN:199,_RNvNtNtCsjTLMFSz4sfV_13nethsm_pkcs113api4sign13C_SignRecover
FN:9,_RNvNtNtCsjTLMFSz4sfV_13nethsm_pkcs113api4sign10C_SignInit
FN:210,_RNvNtNtCsjTLMFSz4sfV_13nethsm_pkcs113api4sign19C_SignEncryptUpdate
FN:42,_RNvNtNtCsjTLMFSz4sfV_13nethsm_pkcs113api4sign6C_Sign
FN:108,_RNvNtNtCsjTLMFSz4sfV_13nethsm_pkcs113api4sign12C_SignUpdate
FN:225,_RNCNvNtNtNtCsjTLMFSz4sfV_13nethsm_pkcs113api4sign5tests22test_sign_recover_init0B9_
FN:243,_RNCNvNtNtNtCsjTLMFSz4sfV_13nethsm_pkcs113api4sign5tests24test_sign_encrypt_update0B9_
FN:231,_RNCNvNtNtNtCsjTLMFSz4sfV_13nethsm_pkcs113api4sign5tests17test_sign_recover0B9_
FN:244,_RNvNtNtNtCsjTLMFSz4sfV_13nethsm_pkcs113api4sign5testss_24test_sign_encrypt_update
FN:226,_RNvNtNtNtCsjTLMFSz4sfV_13nethsm_pkcs113api4sign5testss_22test_sign_recover_init
FN:232,_RNvNtNtNtCsjTLMFSz4sfV_13nethsm_pkcs113api4sign5testss_17test_sign_recover
FNDA:0,_RNvNtNtCsggOPaNFMSYu_13nethsm_pkcs113api4sign13C_SignRecover
FNDA:25,_RNvNtNtCsggOPaNFMSYu_13nethsm_pkcs113api4sign10C_SignInit
FNDA:0,_RNvNtNtCsggOPaNFMSYu_13nethsm_pkcs113api4sign19C_SignEncryptUpdate
FNDA:21,_RNvNtNtCsggOPaNFMSYu_13nethsm_pkcs113api4sign6C_Sign
FNDA:3,_RNvNtNtCsggOPaNFMSYu_13nethsm_pkcs113api4sign12C_SignUpdate
FNDA:1,_RNvNtNtCsggOPaNFMSYu_13nethsm_pkcs113api4sign11C_SignFinal
FNDA:0,_RNvNtNtCsggOPaNFMSYu_13nethsm_pkcs113api4sign17C_SignRecoverInit
FNDA:0,_RNvNtNtCsjTLMFSz4sfV_13nethsm_pkcs113api4sign11C_SignFinal
FNDA:1,_RNvNtNtCsjTLMFSz4sfV_13nethsm_pkcs113api4sign17C_SignRecoverInit
FNDA:1,_RNvNtNtCsjTLMFSz4sfV_13nethsm_pkcs113api4sign13C_SignRecover
FNDA:0,_RNvNtNtCsjTLMFSz4sfV_13nethsm_pkcs113api4sign10C_SignInit
FNDA:1,_RNvNtNtCsjTLMFSz4sfV_13nethsm_pkcs113api4sign19C_SignEncryptUpdate
FNDA:0,_RNvNtNtCsjTLMFSz4sfV_13nethsm_pkcs113api4sign6C_Sign
FNDA:0,_RNvNtNtCsjTLMFSz4sfV_13nethsm_pkcs113api4sign12C_SignUpdate
FNDA:1,_RNCNvNtNtNtCsjTLMFSz4sfV_13nethsm_pkcs113api4sign5tests22test_sign_recover_init0B9_
FNDA:1,_RNCNvNtNtNtCsjTLMFSz4sfV_13nethsm_pkcs113api4sign5tests24test_sign_encrypt_update0B9_
FNDA:1,_RNCNvNtNtNtCsjTLMFSz4sfV_13nethsm_pkcs113api4sign5tests17test_sign_recover0B9_
FNDA:1,_RNvNtNtNtCsjTLMFSz4sfV_13nethsm_pkcs113api4sign5testss_24test_sign_encrypt_update
FNDA:1,_RNvNtNtNtCsjTLMFSz4sfV_13nethsm_pkcs113api4sign5testss_22test_sign_recover_init
FNDA:1,_RNvNtNtNtCsjTLMFSz4sfV_13nethsm_pkcs113api4sign5testss_17test_sign_recover
FNF:13
FNH:13
DA:9,25
DA:10,25
DA:11,25
DA:12,25
DA:13,25
DA:14,25
DA:15,0
DA:19,25
DA:20,0
DA:21,25
DA:22,25
DA:24,25
DA:26,25
DA:27,21
DA:28,4
DA:29,4
DA:30,4
DA:34,21
DA:36,21
DA:37,20
DA:38,1
DA:40,25
DA:42,21
DA:43,21
DA:44,21
DA:45,21
DA:46,21
DA:47,21
DA:48,21
DA:49,21
DA:51,21
DA:53,21
DA:54,21
DA:56,21
DA:57,0
DA:58,0
DA:59,0
DA:60,21
DA:61,21
DA:62,21
DA:63,21
DA:64,21
DA:65,21
DA:66,21
DA:67,21
DA:68,21
DA:69,21
DA:70,21
DA:71,21
DA:72,1
DA:74,1
DA:75,20
DA:76,20
DA:77,20
DA:78,1
DA:79,1
DA:80,19
DA:82,19
DA:83,19
DA:84,0
DA:85,0
DA:86,0
DA:89,19
DA:90,19
DA:91,19
DA:92,19
DA:93,19
DA:94,19
DA:95,19
DA:96,0
DA:97,19
DA:98,19
DA:99,19
DA:100,19
DA:101,19
DA:102,19
DA:103,19
DA:104,19
DA:105,19
DA:106,21
DA:108,3
DA:109,3
DA:110,3
DA:111,3
DA:112,3
DA:113,3
DA:115,3
DA:117,3
DA:118,0
DA:119,0
DA:120,3
DA:121,3
DA:122,3
DA:123,3
DA:124,3
DA:125,3
DA:126,0
DA:127,0
DA:128,0
DA:131,3
DA:133,1
DA:134,1
DA:135,1
DA:136,1
DA:137,1
DA:138,1
DA:140,1
DA:142,1
DA:143,0
DA:144,0
DA:145,1
DA:146,1
DA:147,1
DA:148,1
DA:149,1
DA:150,1
DA:151,1
DA:152,1
DA:153,1
DA:154,1
DA:155,1
DA:157,0
DA:158,1
DA:159,1
DA:160,1
DA:161,0
DA:162,1
DA:164,1
DA:165,1
DA:166,0
DA:167,0
DA:168,0
DA:172,1
DA:173,1
DA:174,1
DA:175,1
DA:176,1
DA:177,1
DA:178,1
DA:179,0
DA:180,1
DA:181,1
DA:182,1
DA:183,1
DA:184,1
DA:185,1
DA:186,1
DA:187,1
DA:188,1
DA:190,1
DA:191,1
DA:192,1
DA:193,1
DA:194,1
DA:195,1
DA:196,1
DA:197,1
DA:199,1
DA:200,1
DA:201,1
DA:202,1
DA:203,1
DA:204,1
DA:205,1
DA:206,1
DA:207,1
DA:208,1
DA:210,1
DA:211,1
DA:212,1
DA:213,1
DA:214,1
DA:215,1
DA:216,1
DA:217,1
DA:218,1
DA:219,1
DA:225,1
DA:226,1
DA:227,1
DA:228,1
DA:229,1
DA:231,1
DA:232,1
DA:233,1
DA:234,1
DA:235,1
DA:236,1
DA:237,1
DA:238,1
DA:239,1
DA:240,1
DA:241,1
DA:243,1
DA:244,1
DA:245,1
DA:246,1
DA:247,1
DA:248,1
DA:249,1
DA:250,1
DA:251,1
DA:252,1
DA:253,1
BRF:0
BRH:0
LF:204
LH:182
end_of_record
SF:/home/sautax/git/nethsm-pkcs11/pkcs11/src/api/token.rs
FN:66,_RNvNtNtCsggOPaNFMSYu_13nethsm_pkcs113api5token13C_GetSlotInfo
FN:335,_RNvNtNtCsggOPaNFMSYu_13nethsm_pkcs113api5token8C_Logout
FN:346,_RNvNtNtCsggOPaNFMSYu_13nethsm_pkcs113api5token18C_WaitForSlotEvent
FN:278,_RNvNtNtCsggOPaNFMSYu_13nethsm_pkcs113api5token18C_GetMechanismInfo
FN:20,_RNvNtNtCsggOPaNFMSYu_13nethsm_pkcs113api5token13C_GetSlotList
FN:307,_RNvNtNtCsggOPaNFMSYu_13nethsm_pkcs113api5token7C_Login
FN:221,_RNvNtNtCsggOPaNFMSYu_13nethsm_pkcs113api5token11C_InitToken
FN:138,_RNvNtNtCsggOPaNFMSYu_13nethsm_pkcs113api5token14C_GetTokenInfo
FN:232,_RNvNtNtCsggOPaNFMSYu_13nethsm_pkcs113api5token18C_GetMechanismList
FN:90,_RNCNCNvNtNtCsggOPaNFMSYu_13nethsm_pkcs113api5token13C_GetSlotInfo00B9_
FN:268,_RNCNvNtNtCsggOPaNFMSYu_13nethsm_pkcs113api5token18C_GetMechanismList0B7_
FN:158,_RNCNCNvNtNtCsggOPaNFMSYu_13nethsm_pkcs113api5token14C_GetTokenInfo00B9_
FN:180,_RNCNCNvNtNtCsggOPaNFMSYu_13nethsm_pkcs113api5token14C_GetTokenInfos_00B9_
FN:105,_RNCNCNvNtNtCsggOPaNFMSYu_13nethsm_pkcs113api5token13C_GetSlotInfos_00B9_
FN:55,_RNCNvNtNtCsggOPaNFMSYu_13nethsm_pkcs113api5token13C_GetSlotList0B7_
FN:295,_RNCNvNtNtCsggOPaNFMSYu_13nethsm_pkcs113api5token18C_GetMechanismInfo0B7_
FN:90,_RNCNCNvNtNtCsjTLMFSz4sfV_13nethsm_pkcs113api5token13C_GetSlotInfo00B9_
FN:105,_RNCNCNvNtNtCsjTLMFSz4sfV_13nethsm_pkcs113api5token13C_GetSlotInfos_00B9_
FN:55,_RNCNvNtNtCsjTLMFSz4sfV_13nethsm_pkcs113api5token13C_GetSlotList0B7_
FN:180,_RNCNCNvNtNtCsjTLMFSz4sfV_13nethsm_pkcs113api5token14C_GetTokenInfos_00B9_
FN:295,_RNCNvNtNtCsjTLMFSz4sfV_13nethsm_pkcs113api5token18C_GetMechanismInfo0B7_
FN:268,_RNCNvNtNtCsjTLMFSz4sfV_13nethsm_pkcs113api5token18C_GetMechanismList0B7_
FN:158,_RNCNCNvNtNtCsjTLMFSz4sfV_13nethsm_pkcs113api5token14C_GetTokenInfo00B9_
FN:360,_RNvNtNtNtCsjTLMFSz4sfV_13nethsm_pkcs113api5token5testss_15test_init_token
FN:366,_RNvNtNtNtCsjTLMFSz4sfV_13nethsm_pkcs113api5token5testss_24test_wait_for_slot_event
FN:359,_RNCNvNtNtNtCsjTLMFSz4sfV_13nethsm_pkcs113api5token5tests15test_init_token0B9_
FN:365,_RNCNvNtNtNtCsjTLMFSz4sfV_13nethsm_pkcs113api5token5tests24test_wait_for_slot_event0B9_
FN:278,_RNvNtNtCsjTLMFSz4sfV_13nethsm_pkcs113api5token18C_GetMechanismInfo
FN:346,_RNvNtNtCsjTLMFSz4sfV_13nethsm_pkcs113api5token18C_WaitForSlotEvent
FN:20,_RNvNtNtCsjTLMFSz4sfV_13nethsm_pkcs113api5token13C_GetSlotList
FN:221,_RNvNtNtCsjTLMFSz4sfV_13nethsm_pkcs113api5token11C_InitToken
FN:138,_RNvNtNtCsjTLMFSz4sfV_13nethsm_pkcs113api5token14C_GetTokenInfo
FN:66,_RNvNtNtCsjTLMFSz4sfV_13nethsm_pkcs113api5token13C_GetSlotInfo
FN:232,_RNvNtNtCsjTLMFSz4sfV_13nethsm_pkcs113api5token18C_GetMechanismList
FN:307,_RNvNtNtCsjTLMFSz4sfV_13nethsm_pkcs113api5token7C_Login
FN:335,_RNvNtNtCsjTLMFSz4sfV_13nethsm_pkcs113api5token8C_Logout
FNDA:42,_RNvNtNtCsggOPaNFMSYu_13nethsm_pkcs113api5token13C_GetSlotInfo
FNDA:0,_RNvNtNtCsggOPaNFMSYu_13nethsm_pkcs113api5token8C_Logout
FNDA:0,_RNvNtNtCsggOPaNFMSYu_13nethsm_pkcs113api5token18C_WaitForSlotEvent
FNDA:120,_RNvNtNtCsggOPaNFMSYu_13nethsm_pkcs113api5token18C_GetMechanismInfo
FNDA:76,_RNvNtNtCsggOPaNFMSYu_13nethsm_pkcs113api5token13C_GetSlotList
FNDA:12,_RNvNtNtCsggOPaNFMSYu_13nethsm_pkcs113api5token7C_Login
FNDA:0,_RNvNtNtCsggOPaNFMSYu_13nethsm_pkcs113api5token11C_InitToken
FNDA:41,_RNvNtNtCsggOPaNFMSYu_13nethsm_pkcs113api5token14C_GetTokenInfo
FNDA:20,_RNvNtNtCsggOPaNFMSYu_13nethsm_pkcs113api5token18C_GetMechanismList
FNDA:42,_RNCNCNvNtNtCsggOPaNFMSYu_13nethsm_pkcs113api5token13C_GetSlotInfo00B9_
FNDA:120,_RNCNvNtNtCsggOPaNFMSYu_13nethsm_pkcs113api5token18C_GetMechanismList0B7_
FNDA:41,_RNCNCNvNtNtCsggOPaNFMSYu_13nethsm_pkcs113api5token14C_GetTokenInfo00B9_
FNDA:41,_RNCNCNvNtNtCsggOPaNFMSYu_13nethsm_pkcs113api5token14C_GetTokenInfos_00B9_
FNDA:42,_RNCNCNvNtNtCsggOPaNFMSYu_13nethsm_pkcs113api5token13C_GetSlotInfos_00B9_
FNDA:42,_RNCNvNtNtCsggOPaNFMSYu_13nethsm_pkcs113api5token13C_GetSlotList0B7_
FNDA:780,_RNCNvNtNtCsggOPaNFMSYu_13nethsm_pkcs113api5token18C_GetMechanismInfo0B7_
FNDA:0,_RNCNCNvNtNtCsjTLMFSz4sfV_13nethsm_pkcs113api5token13C_GetSlotInfo00B9_
FNDA:0,_RNCNCNvNtNtCsjTLMFSz4sfV_13nethsm_pkcs113api5token13C_GetSlotInfos_00B9_
FNDA:0,_RNCNvNtNtCsjTLMFSz4sfV_13nethsm_pkcs113api5token13C_GetSlotList0B7_
FNDA:0,_RNCNCNvNtNtCsjTLMFSz4sfV_13nethsm_pkcs113api5token14C_GetTokenInfos_00B9_
FNDA:0,_RNCNvNtNtCsjTLMFSz4sfV_13nethsm_pkcs113api5token18C_GetMechanismInfo0B7_
FNDA:0,_RNCNvNtNtCsjTLMFSz4sfV_13nethsm_pkcs113api5token18C_GetMechanismList0B7_
FNDA:0,_RNCNCNvNtNtCsjTLMFSz4sfV_13nethsm_pkcs113api5token14C_GetTokenInfo00B9_
FNDA:1,_RNvNtNtNtCsjTLMFSz4sfV_13nethsm_pkcs113api5token5testss_15test_init_token
FNDA:1,_RNvNtNtNtCsjTLMFSz4sfV_13nethsm_pkcs113api5token5testss_24test_wait_for_slot_event
FNDA:1,_RNCNvNtNtNtCsjTLMFSz4sfV_13nethsm_pkcs113api5token5tests15test_init_token0B9_
FNDA:1,_RNCNvNtNtNtCsjTLMFSz4sfV_13nethsm_pkcs113api5token5tests24test_wait_for_slot_event0B9_
FNDA:0,_RNvNtNtCsjTLMFSz4sfV_13nethsm_pkcs113api5token18C_GetMechanismInfo
FNDA:1,_RNvNtNtCsjTLMFSz4sfV_13nethsm_pkcs113api5token18C_WaitForSlotEvent
FNDA:0,_RNvNtNtCsjTLMFSz4sfV_13nethsm_pkcs113api5token13C_GetSlotList
FNDA:1,_RNvNtNtCsjTLMFSz4sfV_13nethsm_pkcs113api5token11C_InitToken
FNDA:0,_RNvNtNtCsjTLMFSz4sfV_13nethsm_pkcs113api5token14C_GetTokenInfo
FNDA:0,_RNvNtNtCsjTLMFSz4sfV_13nethsm_pkcs113api5token13C_GetSlotInfo
FNDA:0,_RNvNtNtCsjTLMFSz4sfV_13nethsm_pkcs113api5token18C_GetMechanismList
FNDA:0,_RNvNtNtCsjTLMFSz4sfV_13nethsm_pkcs113api5token7C_Login
FNDA:0,_RNvNtNtCsjTLMFSz4sfV_13nethsm_pkcs113api5token8C_Logout
FNF:20
FNH:19
DA:20,76
DA:21,76
DA:22,76
DA:23,76
DA:24,76
DA:25,76
DA:27,76
DA:28,0
DA:29,76
DA:30,76
DA:31,76
DA:32,76
DA:33,76
DA:34,76
DA:35,34
DA:36,34
DA:37,34
DA:38,34
DA:41,42
DA:42,0
DA:43,0
DA:44,0
DA:45,0
DA:46,42
DA:47,42
DA:48,42
DA:49,42
DA:50,42
DA:51,42
DA:52,42
DA:53,42
DA:54,42
DA:55,42
DA:56,42
DA:57,42
DA:58,42
DA:59,42
DA:60,42
DA:61,42
DA:62,42
DA:63,42
DA:64,76
DA:66,42
DA:67,42
DA:68,42
DA:69,42
DA:70,42
DA:74,42
DA:75,42
DA:76,0
DA:77,0
DA:81,42
DA:82,0
DA:83,42
DA:84,42
DA:85,42
DA:86,42
DA:87,42
DA:88,42
DA:89,42
DA:90,209
DA:91,42
DA:92,42
DA:96,42
DA:97,42
DA:98,0
DA:99,0
DA:100,0
DA:104,42
DA:105,70
DA:106,42
DA:107,42
DA:111,42
DA:112,42
DA:113,0
DA:114,0
DA:115,0
DA:119,42
DA:120,42
DA:121,42
DA:123,42
DA:124,42
DA:125,42
DA:126,42
DA:127,42
DA:128,42
DA:129,42
DA:130,42
DA:131,42
DA:132,42
DA:133,42
DA:134,42
DA:135,42
DA:136,42
DA:138,41
DA:139,41
DA:140,41
DA:141,41
DA:142,41
DA:144,41
DA:145,41
DA:146,0
DA:147,0
DA:151,41
DA:152,0
DA:153,41
DA:154,41
DA:155,41
DA:156,41
DA:157,41
DA:158,79
DA:159,41
DA:160,41
DA:164,41
DA:165,41
DA:166,0
DA:167,0
DA:168,0
DA:172,41
DA:173,41
DA:174,41
DA:175,41
DA:176,41
DA:177,41
DA:178,41
DA:179,41
DA:180,71
DA:181,41
DA:182,41
DA:183,0
DA:184,0
DA:186,41
DA:187,41
DA:188,41
DA:190,41
DA:193,0
DA:195,41
DA:196,41
DA:197,41
DA:198,41
DA:199,0
DA:200,0
DA:201,41
DA:203,41
DA:204,41
DA:205,41
DA:206,41
DA:207,41
DA:208,41
DA:209,41
DA:210,41
DA:211,41
DA:212,41
DA:213,41
DA:214,41
DA:215,41
DA:216,41
DA:217,41
DA:218,41
DA:219,41
DA:221,1
DA:222,1
DA:223,1
DA:224,1
DA:225,1
DA:226,1
DA:227,1
DA:229,1
DA:230,1
DA:232,20
DA:233,20
DA:234,20
DA:235,20
DA:236,20
DA:237,20
DA:239,20
DA:240,0
DA:241,20
DA:242,20
DA:243,20
DA:244,20
DA:245,20
DA:246,20
DA:247,10
DA:248,10
DA:249,10
DA:250,10
DA:251,10
DA:252,10
DA:253,10
DA:254,10
DA:255,10
DA:256,10
DA:257,10
DA:258,10
DA:259,10
DA:260,10
DA:261,0
DA:262,10
DA:263,10
DA:264,10
DA:265,10
DA:266,10
DA:267,10
DA:268,120
DA:269,10
DA:270,10
DA:271,10
DA:272,10
DA:273,10
DA:274,10
DA:275,10
DA:276,20
DA:278,120
DA:279,120
DA:280,120
DA:281,120
DA:282,120
DA:283,120
DA:285,120
DA:286,0
DA:287,120
DA:288,120
DA:289,120
DA:290,0
DA:291,120
DA:295,780
DA:296,120
DA:297,0
DA:300,120
DA:301,120
DA:302,120
DA:303,120
DA:304,120
DA:305,120
DA:307,12
DA:308,12
DA:309,12
DA:310,12
DA:311,12
DA:312,12
DA:313,12
DA:315,12
DA:316,0
DA:317,12
DA:318,12
DA:319,12
DA:323,12
DA:324,12
DA:325,0
DA:328,12
DA:330,12
DA:331,12
DA:332,0
DA:334,12
DA:335,0
DA:336,0
DA:338,0
DA:340,0
DA:341,0
DA:342,0
DA:344,0
DA:346,1
DA:347,1
DA:348,1
DA:349,1
DA:350,1
DA:351,1
DA:352,1
DA:353,1
DA:359,1
DA:360,1
DA:361,1
DA:362,1
DA:363,1
DA:365,1
DA:366,1
DA:367,1
DA:368,1
DA:369,1
BRF:0
BRH:0
LF:287
LH:247
end_of_record
SF:/home/sautax/git/nethsm-pkcs11/pkcs11/src/api/verify.rs
FN:48,_RNvNtNtCsggOPaNFMSYu_13nethsm_pkcs113api6verify13C_VerifyFinal
FN:62,_RNvNtNtCsggOPaNFMSYu_13nethsm_pkcs113api6verify19C_VerifyRecoverInit
FN:7,_RNvNtNtCsggOPaNFMSYu_13nethsm_pkcs113api6verify12C_VerifyInit
FN:71,_RNvNtNtCsggOPaNFMSYu_13nethsm_pkcs113api6verify15C_VerifyRecover
FN:20,_RNvNtNtCsggOPaNFMSYu_13nethsm_pkcs113api6verify8C_Verify
FN:35,_RNvNtNtCsggOPaNFMSYu_13nethsm_pkcs113api6verify14C_VerifyUpdate
FN:138,_RNvNtNtNtCsjTLMFSz4sfV_13nethsm_pkcs113api6verify5testss_19test_verify_recover
FN:132,_RNvNtNtNtCsjTLMFSz4sfV_13nethsm_pkcs113api6verify5testss_24test_verify_recover_init
FN:104,_RNvNtNtNtCsjTLMFSz4sfV_13nethsm_pkcs113api6verify5testss_11test_verify
FN:118,_RNvNtNtNtCsjTLMFSz4sfV_13nethsm_pkcs113api6verify5testss_18test_verify_update
FN:125,_RNvNtNtNtCsjTLMFSz4sfV_13nethsm_pkcs113api6verify5testss_17test_verify_final
FN:90,_RNvNtNtNtCsjTLMFSz4sfV_13nethsm_pkcs113api6verify5testss_16test_verify_init
FN:35,_RNvNtNtCsjTLMFSz4sfV_13nethsm_pkcs113api6verify14C_VerifyUpdate
FN:62,_RNvNtNtCsjTLMFSz4sfV_13nethsm_pkcs113api6verify19C_VerifyRecoverInit
FN:71,_RNvNtNtCsjTLMFSz4sfV_13nethsm_pkcs113api6verify15C_VerifyRecover
FN:7,_RNvNtNtCsjTLMFSz4sfV_13nethsm_pkcs113api6verify12C_VerifyInit
FN:20,_RNvNtNtCsjTLMFSz4sfV_13nethsm_pkcs113api6verify8C_Verify
FN:48,_RNvNtNtCsjTLMFSz4sfV_13nethsm_pkcs113api6verify13C_VerifyFinal
FN:131,_RNCNvNtNtNtCsjTLMFSz4sfV_13nethsm_pkcs113api6verify5tests24test_verify_recover_init0B9_
FN:103,_RNCNvNtNtNtCsjTLMFSz4sfV_13nethsm_pkcs113api6verify5tests11test_verify0B9_
FN:117,_RNCNvNtNtNtCsjTLMFSz4sfV_13nethsm_pkcs113api6verify5tests18test_verify_update0B9_
FN:124,_RNCNvNtNtNtCsjTLMFSz4sfV_13nethsm_pkcs113api6verify5tests17test_verify_final0B9_
FN:89,_RNCNvNtNtNtCsjTLMFSz4sfV_13nethsm_pkcs113api6verify5tests16test_verify_init0B9_
FN:137,_RNCNvNtNtNtCsjTLMFSz4sfV_13nethsm_pkcs113api6verify5tests19test_verify_recover0B9_
FNDA:0,_RNvNtNtCsggOPaNFMSYu_13nethsm_pkcs113api6verify13C_VerifyFinal
FNDA:0,_RNvNtNtCsggOPaNFMSYu_13nethsm_pkcs113api6verify19C_VerifyRecoverInit
FNDA:0,_RNvNtNtCsggOPaNFMSYu_13nethsm_pkcs113api6verify12C_VerifyInit
FNDA:0,_RNvNtNtCsggOPaNFMSYu_13nethsm_pkcs113api6verify15C_VerifyRecover
FNDA:0,_RNvNtNtCsggOPaNFMSYu_13nethsm_pkcs113api6verify8C_Verify
FNDA:0,_RNvNtNtCsggOPaNFMSYu_13nethsm_pkcs113api6verify14C_VerifyUpdate
FNDA:1,_RNvNtNtNtCsjTLMFSz4sfV_13nethsm_pkcs113api6verify5testss_19test_verify_recover
FNDA:1,_RNvNtNtNtCsjTLMFSz4sfV_13nethsm_pkcs113api6verify5testss_24test_verify_recover_init
FNDA:1,_RNvNtNtNtCsjTLMFSz4sfV_13nethsm_pkcs113api6verify5testss_11test_verify
FNDA:1,_RNvNtNtNtCsjTLMFSz4sfV_13nethsm_pkcs113api6verify5testss_18test_verify_update
FNDA:1,_RNvNtNtNtCsjTLMFSz4sfV_13nethsm_pkcs113api6verify5testss_17test_verify_final
FNDA:1,_RNvNtNtNtCsjTLMFSz4sfV_13nethsm_pkcs113api6verify5testss_16test_verify_init
FNDA:1,_RNvNtNtCsjTLMFSz4sfV_13nethsm_pkcs113api6verify14C_VerifyUpdate
FNDA:1,_RNvNtNtCsjTLMFSz4sfV_13nethsm_pkcs113api6verify19C_VerifyRecoverInit
FNDA:1,_RNvNtNtCsjTLMFSz4sfV_13nethsm_pkcs113api6verify15C_VerifyRecover
FNDA:2,_RNvNtNtCsjTLMFSz4sfV_13nethsm_pkcs113api6verify12C_VerifyInit
FNDA:1,_RNvNtNtCsjTLMFSz4sfV_13nethsm_pkcs113api6verify8C_Verify
FNDA:1,_RNvNtNtCsjTLMFSz4sfV_13nethsm_pkcs113api6verify13C_VerifyFinal
FNDA:1,_RNCNvNtNtNtCsjTLMFSz4sfV_13nethsm_pkcs113api6verify5tests24test_verify_recover_init0B9_
FNDA:1,_RNCNvNtNtNtCsjTLMFSz4sfV_13nethsm_pkcs113api6verify5tests11test_verify0B9_
FNDA:1,_RNCNvNtNtNtCsjTLMFSz4sfV_13nethsm_pkcs113api6verify5tests18test_verify_update0B9_
FNDA:1,_RNCNvNtNtNtCsjTLMFSz4sfV_13nethsm_pkcs113api6verify5tests17test_verify_final0B9_
FNDA:1,_RNCNvNtNtNtCsjTLMFSz4sfV_13nethsm_pkcs113api6verify5tests16test_verify_init0B9_
FNDA:1,_RNCNvNtNtNtCsjTLMFSz4sfV_13nethsm_pkcs113api6verify5tests19test_verify_recover0B9_
FNF:18
FNH:18
DA:7,2
DA:8,2
DA:9,2
DA:10,2
DA:11,2
DA:12,2
DA:13,2
DA:14,1
DA:15,1
DA:16,1
DA:17,1
DA:18,2
DA:20,1
DA:21,1
DA:22,1
DA:23,1
DA:24,1
DA:25,1
DA:26,1
DA:27,1
DA:28,1
DA:29,0
DA:30,1
DA:31,1
DA:32,1
DA:33,1
DA:35,1
DA:36,1
DA:37,1
DA:38,1
DA:39,1
DA:40,1
DA:41,1
DA:42,0
DA:43,1
DA:44,1
DA:45,1
DA:46,1
DA:48,1
DA:49,1
DA:50,1
DA:51,1
DA:52,1
DA:53,1
DA:55,1
DA:56,0
DA:57,1
DA:58,1
DA:59,1
DA:60,1
DA:62,1
DA:63,1
DA:64,1
DA:65,1
DA:66,1
DA:67,1
DA:68,1
DA:69,1
DA:71,1
DA:72,1
DA:73,1
DA:74,1
DA:75,1
DA:76,1
DA:77,1
DA:78,1
DA:79,1
DA:80,1
DA:89,1
DA:90,1
DA:91,1
DA:92,1
DA:94,1
DA:95,1
DA:96,1
DA:97,1
DA:98,1
DA:99,1
DA:100,1
DA:101,1
DA:103,1
DA:104,1
DA:105,1
DA:106,1
DA:107,1
DA:108,1
DA:109,1
DA:110,1
DA:111,1
DA:112,1
DA:113,1
DA:114,1
DA:115,1
DA:117,1
DA:118,1
DA:119,1
DA:120,1
DA:121,1
DA:122,1
DA:124,1
DA:125,1
DA:126,1
DA:127,1
DA:128,1
DA:129,1
DA:131,1
DA:132,1
DA:133,1
DA:134,1
DA:135,1
DA:137,1
DA:138,1
DA:139,1
DA:140,1
DA:141,1
DA:142,1
DA:143,1
DA:144,1
DA:145,1
DA:146,1
DA:147,1
DA:148,1
DA:149,1
DA:150,1
BRF:0
BRH:0
LF:124
LH:121
end_of_record
SF:/home/sautax/git/nethsm-pkcs11/pkcs11/src/backend/db/attr.rs
FN:36,_RINvMNtNtNtCsggOPaNFMSYu_13nethsm_pkcs117backend2db4attrNtB3_9CkRawAttr10read_valueyEB9_
FN:44,_RNvMNtNtNtCsggOPaNFMSYu_13nethsm_pkcs117backend2db4attrNtB2_9CkRawAttr3len
FN:15,_RNvMNtNtNtCsggOPaNFMSYu_13nethsm_pkcs117backend2db4attrNtB2_9CkRawAttr22from_raw_ptr_unchecked
FN:48,_RNvMNtNtNtCsggOPaNFMSYu_13nethsm_pkcs117backend2db4attrNtB2_9CkRawAttr7set_len
FN:19,_RNvMNtNtNtCsggOPaNFMSYu_13nethsm_pkcs117backend2db4attrNtB2_9CkRawAttr5type_
FN:54,_RNvMNtNtNtCsggOPaNFMSYu_13nethsm_pkcs117backend2db4attrNtB2_9CkRawAttr13set_val_bytes
FN:23,_RNvMNtNtNtCsggOPaNFMSYu_13nethsm_pkcs117backend2db4attrNtB2_9CkRawAttr9val_bytes
FN:89,_RNvMs_NtNtNtCsggOPaNFMSYu_13nethsm_pkcs117backend2db4attrNtB4_17CkRawAttrTemplate3len
FN:93,_RNvMs_NtNtNtCsggOPaNFMSYu_13nethsm_pkcs117backend2db4attrNtB4_17CkRawAttrTemplate4iter
FN:75,_RNvMs_NtNtNtCsggOPaNFMSYu_13nethsm_pkcs117backend2db4attrNtB4_17CkRawAttrTemplate22from_raw_ptr_unchecked
FN:108,_RNvXs0_NtNtNtCsggOPaNFMSYu_13nethsm_pkcs117backend2db4attrNtB5_21CkRawAttrTemplateIterNtNtNtNtCskl7yHyHAUN_4core4iter6traits8iterator8Iterator4next
FN:82,_RNvMs_NtNtNtCsggOPaNFMSYu_13nethsm_pkcs117backend2db4attrNtB4_17CkRawAttrTemplate12attr_wrapper
FN:68,_RNvXs1_NtNtNtCsggOPaNFMSYu_13nethsm_pkcs117backend2db4attrNtB5_17CkRawAttrTemplateNtNtCskl7yHyHAUN_4core3fmt5Debug3fmt
FN:19,_RNvMNtNtNtCsjTLMFSz4sfV_13nethsm_pkcs117backend2db4attrNtB2_9CkRawAttr5type_
FN:54,_RNvMNtNtNtCsjTLMFSz4sfV_13nethsm_pkcs117backend2db4attrNtB2_9CkRawAttr13set_val_bytes
FN:23,_RNvMNtNtNtCsjTLMFSz4sfV_13nethsm_pkcs117backend2db4attrNtB2_9CkRawAttr9val_bytes
FN:93,_RNvMs_NtNtNtCsjTLMFSz4sfV_13nethsm_pkcs117backend2db4attrNtB4_17CkRawAttrTemplate4iter
FN:75,_RNvMs_NtNtNtCsjTLMFSz4sfV_13nethsm_pkcs117backend2db4attrNtB4_17CkRawAttrTemplate22from_raw_ptr_unchecked
FN:108,_RNvXs0_NtNtNtCsjTLMFSz4sfV_13nethsm_pkcs117backend2db4attrNtB5_21CkRawAttrTemplateIterNtNtNtNtCskl7yHyHAUN_4core4iter6traits8iterator8Iterator4next
FN:82,_RNvMs_NtNtNtCsjTLMFSz4sfV_13nethsm_pkcs117backend2db4attrNtB4_17CkRawAttrTemplate12attr_wrapper
FN:44,_RNvMNtNtNtCsjTLMFSz4sfV_13nethsm_pkcs117backend2db4attrNtB2_9CkRawAttr3len
FN:15,_RNvMNtNtNtCsjTLMFSz4sfV_13nethsm_pkcs117backend2db4attrNtB2_9CkRawAttr22from_raw_ptr_unchecked
FN:48,_RNvMNtNtNtCsjTLMFSz4sfV_13nethsm_pkcs117backend2db4attrNtB2_9CkRawAttr7set_len
FN:89,_RNvMs_NtNtNtCsjTLMFSz4sfV_13nethsm_pkcs117backend2db4attrNtB4_17CkRawAttrTemplate3len
FN:68,_RNvXs1_NtNtNtCsjTLMFSz4sfV_13nethsm_pkcs117backend2db4attrNtB5_17CkRawAttrTemplateNtNtCskl7yHyHAUN_4core3fmt5Debug3fmt
FN:36,_RINvMNtNtNtCsjTLMFSz4sfV_13nethsm_pkcs117backend2db4attrNtB3_9CkRawAttr10read_valueyEB9_
FNDA:110,_RINvMNtNtNtCsggOPaNFMSYu_13nethsm_pkcs117backend2db4attrNtB3_9CkRawAttr10read_valueyEB9_
FNDA:92,_RNvMNtNtNtCsggOPaNFMSYu_13nethsm_pkcs117backend2db4attrNtB2_9CkRawAttr3len
FNDA:809,_RNvMNtNtNtCsggOPaNFMSYu_13nethsm_pkcs117backend2db4attrNtB2_9CkRawAttr22from_raw_ptr_unchecked
FNDA:498,_RNvMNtNtNtCsggOPaNFMSYu_13nethsm_pkcs117backend2db4attrNtB2_9CkRawAttr7set_len
FNDA:1014,_RNvMNtNtNtCsggOPaNFMSYu_13nethsm_pkcs117backend2db4attrNtB2_9CkRawAttr5type_
FNDA:472,_RNvMNtNtNtCsggOPaNFMSYu_13nethsm_pkcs117backend2db4attrNtB2_9CkRawAttr13set_val_bytes
FNDA:92,_RNvMNtNtNtCsggOPaNFMSYu_13nethsm_pkcs117backend2db4attrNtB2_9CkRawAttr9val_bytes
FNDA:1407,_RNvMs_NtNtNtCsggOPaNFMSYu_13nethsm_pkcs117backend2db4attrNtB4_17CkRawAttrTemplate3len
FNDA:598,_RNvMs_NtNtNtCsggOPaNFMSYu_13nethsm_pkcs117backend2db4attrNtB4_17CkRawAttrTemplate4iter
FNDA:592,_RNvMs_NtNtNtCsggOPaNFMSYu_13nethsm_pkcs117backend2db4attrNtB4_17CkRawAttrTemplate22from_raw_ptr_unchecked
FNDA:1407,_RNvXs0_NtNtNtCsggOPaNFMSYu_13nethsm_pkcs117backend2db4attrNtB5_21CkRawAttrTemplateIterNtNtNtNtCskl7yHyHAUN_4core4iter6traits8iterator8Iterator4next
FNDA:809,_RNvMs_NtNtNtCsggOPaNFMSYu_13nethsm_pkcs117backend2db4attrNtB4_17CkRawAttrTemplate12attr_wrapper
FNDA:0,_RNvXs1_NtNtNtCsggOPaNFMSYu_13nethsm_pkcs117backend2db4attrNtB5_17CkRawAttrTemplateNtNtCskl7yHyHAUN_4core3fmt5Debug3fmt
FNDA:0,_RNvMNtNtNtCsjTLMFSz4sfV_13nethsm_pkcs117backend2db4attrNtB2_9CkRawAttr5type_
FNDA:0,_RNvMNtNtNtCsjTLMFSz4sfV_13nethsm_pkcs117backend2db4attrNtB2_9CkRawAttr13set_val_bytes
FNDA:0,_RNvMNtNtNtCsjTLMFSz4sfV_13nethsm_pkcs117backend2db4attrNtB2_9CkRawAttr9val_bytes
FNDA:0,_RNvMs_NtNtNtCsjTLMFSz4sfV_13nethsm_pkcs117backend2db4attrNtB4_17CkRawAttrTemplate4iter
FNDA:0,_RNvMs_NtNtNtCsjTLMFSz4sfV_13nethsm_pkcs117backend2db4attrNtB4_17CkRawAttrTemplate22from_raw_ptr_unchecked
FNDA:0,_RNvXs0_NtNtNtCsjTLMFSz4sfV_13nethsm_pkcs117backend2db4attrNtB5_21CkRawAttrTemplateIterNtNtNtNtCskl7yHyHAUN_4core4iter6traits8iterator8Iterator4next
FNDA:0,_RNvMs_NtNtNtCsjTLMFSz4sfV_13nethsm_pkcs117backend2db4attrNtB4_17CkRawAttrTemplate12attr_wrapper
FNDA:0,_RNvMNtNtNtCsjTLMFSz4sfV_13nethsm_pkcs117backend2db4attrNtB2_9CkRawAttr3len
FNDA:0,_RNvMNtNtNtCsjTLMFSz4sfV_13nethsm_pkcs117backend2db4attrNtB2_9CkRawAttr22from_raw_ptr_unchecked
FNDA:0,_RNvMNtNtNtCsjTLMFSz4sfV_13nethsm_pkcs117backend2db4attrNtB2_9CkRawAttr7set_len
FNDA:0,_RNvMs_NtNtNtCsjTLMFSz4sfV_13nethsm_pkcs117backend2db4attrNtB4_17CkRawAttrTemplate3len
FNDA:0,_RNvXs1_NtNtNtCsjTLMFSz4sfV_13nethsm_pkcs117backend2db4attrNtB5_17CkRawAttrTemplateNtNtCskl7yHyHAUN_4core3fmt5Debug3fmt
FNDA:0,_RINvMNtNtNtCsjTLMFSz4sfV_13nethsm_pkcs117backend2db4attrNtB3_9CkRawAttr10read_valueyEB9_
FNF:13
FNH:12
DA:15,809
DA:16,809
DA:17,809
DA:19,1014
DA:20,1014
DA:21,1014
DA:23,92
DA:24,92
DA:25,92
DA:26,0
DA:27,92
DA:28,92
DA:29,92
DA:30,92
DA:31,92
DA:32,92
DA:34,92
DA:36,110
DA:37,110
DA:38,110
DA:39,0
DA:40,110
DA:41,110
DA:42,110
DA:44,92
DA:45,92
DA:46,92
DA:48,498
DA:49,498
DA:50,498
DA:51,498
DA:52,498
DA:54,472
DA:55,472
DA:56,472
DA:57,116
DA:58,356
DA:59,356
DA:60,0
DA:61,356
DA:62,356
DA:63,356
DA:64,356
DA:65,472
DA:68,0
DA:75,592
DA:76,592
DA:77,592
DA:78,592
DA:79,592
DA:80,592
DA:82,809
DA:83,809
DA:84,0
DA:85,809
DA:86,809
DA:87,809
DA:89,1407
DA:90,1407
DA:91,1407
DA:93,598
DA:94,598
DA:95,598
DA:96,598
DA:97,598
DA:98,598
DA:108,1407
DA:109,1407
DA:110,809
DA:111,809
DA:112,809
DA:114,598
DA:116,1407
BRF:0
BRH:0
LF:73
LH:68
end_of_record
SF:/home/sautax/git/nethsm-pkcs11/pkcs11/src/backend/db/mod.rs
FN:84,_RNvMNtNtCsggOPaNFMSYu_13nethsm_pkcs117backend2dbNtB2_2Db6object
FN:61,_RNvMNtNtCsggOPaNFMSYu_13nethsm_pkcs117backend2dbNtB2_2Db10add_object
FN:88,_RNvMNtNtCsggOPaNFMSYu_13nethsm_pkcs117backend2dbNtB2_2Db6remove
FN:40,_RNvMNtNtCsggOPaNFMSYu_13nethsm_pkcs117backend2dbNtB2_2Db20set_fetched_all_keys
FN:54,_RNvMNtNtCsggOPaNFMSYu_13nethsm_pkcs117backend2dbNtB2_2Db9enumerate
FN:29,_RNvMNtNtCsggOPaNFMSYu_13nethsm_pkcs117backend2dbNtB2_2Db16fetched_all_keys
FN:21,_RNvMNtNtCsggOPaNFMSYu_13nethsm_pkcs117backend2dbNtB2_2Db3new
FN:31,_RNCNvMNtNtCsggOPaNFMSYu_13nethsm_pkcs117backend2dbNtB4_2Db16fetched_all_keys0B8_
FN:34,_RNCNCNvMNtNtCsggOPaNFMSYu_13nethsm_pkcs117backend2dbNtB6_2Db16fetched_all_keys00Ba_
FN:67,_RNCNvMNtNtCsggOPaNFMSYu_13nethsm_pkcs117backend2dbNtB4_2Db10add_object0B8_
FN:58,_RNCNvMNtNtCsggOPaNFMSYu_13nethsm_pkcs117backend2dbNtB4_2Db9enumerate0B8_
FN:49,_RNvMNtNtCsggOPaNFMSYu_13nethsm_pkcs117backend2dbNtB2_2Db5clear
FN:13,_RNvXs_NtNtCsggOPaNFMSYu_13nethsm_pkcs117backend2dbNtB4_2DbNtNtCskl7yHyHAUN_4core3fmt5Debug3fmt
FN:13,_RNvXs_NtNtCsjTLMFSz4sfV_13nethsm_pkcs117backend2dbNtB4_2DbNtNtCskl7yHyHAUN_4core3fmt5Debug3fmt
FN:49,_RNvMNtNtCsjTLMFSz4sfV_13nethsm_pkcs117backend2dbNtB2_2Db5clear
FN:31,_RNCNvMNtNtCsjTLMFSz4sfV_13nethsm_pkcs117backend2dbNtB4_2Db16fetched_all_keys0B8_
FN:67,_RNCNvMNtNtCsjTLMFSz4sfV_13nethsm_pkcs117backend2dbNtB4_2Db10add_object0B8_
FN:58,_RNCNvMNtNtCsjTLMFSz4sfV_13nethsm_pkcs117backend2dbNtB4_2Db9enumerate0B8_
FN:34,_RNCNCNvMNtNtCsjTLMFSz4sfV_13nethsm_pkcs117backend2dbNtB6_2Db16fetched_all_keys00Ba_
FN:40,_RNvMNtNtCsjTLMFSz4sfV_13nethsm_pkcs117backend2dbNtB2_2Db20set_fetched_all_keys
FN:84,_RNvMNtNtCsjTLMFSz4sfV_13nethsm_pkcs117backend2dbNtB2_2Db6object
FN:21,_RNvMNtNtCsjTLMFSz4sfV_13nethsm_pkcs117backend2dbNtB2_2Db3new
FN:54,_RNvMNtNtCsjTLMFSz4sfV_13nethsm_pkcs117backend2dbNtB2_2Db9enumerate
FN:29,_RNvMNtNtCsjTLMFSz4sfV_13nethsm_pkcs117backend2dbNtB2_2Db16fetched_all_keys
FN:61,_RNvMNtNtCsjTLMFSz4sfV_13nethsm_pkcs117backend2dbNtB2_2Db10add_object
FN:88,_RNvMNtNtCsjTLMFSz4sfV_13nethsm_pkcs117backend2dbNtB2_2Db6remove
FNDA:532,_RNvMNtNtCsggOPaNFMSYu_13nethsm_pkcs117backend2dbNtB2_2Db6object
FNDA:93,_RNvMNtNtCsggOPaNFMSYu_13nethsm_pkcs117backend2dbNtB2_2Db10add_object
FNDA:1,_RNvMNtNtCsggOPaNFMSYu_13nethsm_pkcs117backend2dbNtB2_2Db6remove
FNDA:1,_RNvMNtNtCsggOPaNFMSYu_13nethsm_pkcs117backend2dbNtB2_2Db20set_fetched_all_keys
FNDA:77,_RNvMNtNtCsggOPaNFMSYu_13nethsm_pkcs117backend2dbNtB2_2Db9enumerate
FNDA:30,_RNvMNtNtCsggOPaNFMSYu_13nethsm_pkcs117backend2dbNtB2_2Db16fetched_all_keys
FNDA:36,_RNvMNtNtCsggOPaNFMSYu_13nethsm_pkcs117backend2dbNtB2_2Db3new
FNDA:29,_RNCNvMNtNtCsggOPaNFMSYu_13nethsm_pkcs117backend2dbNtB4_2Db16fetched_all_keys0B8_
FNDA:29,_RNCNCNvMNtNtCsggOPaNFMSYu_13nethsm_pkcs117backend2dbNtB6_2Db16fetched_all_keys00Ba_
FNDA:556,_RNCNvMNtNtCsggOPaNFMSYu_13nethsm_pkcs117backend2dbNtB4_2Db10add_object0B8_
FNDA:1816,_RNCNvMNtNtCsggOPaNFMSYu_13nethsm_pkcs117backend2dbNtB4_2Db9enumerate0B8_
FNDA:0,_RNvMNtNtCsggOPaNFMSYu_13nethsm_pkcs117backend2dbNtB2_2Db5clear
FNDA:0,_RNvXs_NtNtCsggOPaNFMSYu_13nethsm_pkcs117backend2dbNtB4_2DbNtNtCskl7yHyHAUN_4core3fmt5Debug3fmt
FNDA:0,_RNvXs_NtNtCsjTLMFSz4sfV_13nethsm_pkcs117backend2dbNtB4_2DbNtNtCskl7yHyHAUN_4core3fmt5Debug3fmt
FNDA:0,_RNvMNtNtCsjTLMFSz4sfV_13nethsm_pkcs117backend2dbNtB2_2Db5clear
FNDA:0,_RNCNvMNtNtCsjTLMFSz4sfV_13nethsm_pkcs117backend2dbNtB4_2Db16fetched_all_keys0B8_
FNDA:0,_RNCNvMNtNtCsjTLMFSz4sfV_13nethsm_pkcs117backend2dbNtB4_2Db10add_object0B8_
FNDA:0,_RNCNvMNtNtCsjTLMFSz4sfV_13nethsm_pkcs117backend2dbNtB4_2Db9enumerate0B8_
FNDA:0,_RNCNCNvMNtNtCsjTLMFSz4sfV_13nethsm_pkcs117backend2dbNtB6_2Db16fetched_all_keys00Ba_
FNDA:0,_RNvMNtNtCsjTLMFSz4sfV_13nethsm_pkcs117backend2dbNtB2_2Db20set_fetched_all_keys
FNDA:0,_RNvMNtNtCsjTLMFSz4sfV_13nethsm_pkcs117backend2dbNtB2_2Db6object
FNDA:0,_RNvMNtNtCsjTLMFSz4sfV_13nethsm_pkcs117backend2dbNtB2_2Db3new
FNDA:0,_RNvMNtNtCsjTLMFSz4sfV_13nethsm_pkcs117backend2dbNtB2_2Db9enumerate
FNDA:0,_RNvMNtNtCsjTLMFSz4sfV_13nethsm_pkcs117backend2dbNtB2_2Db16fetched_all_keys
FNDA:0,_RNvMNtNtCsjTLMFSz4sfV_13nethsm_pkcs117backend2dbNtB2_2Db10add_object
FNDA:0,_RNvMNtNtCsjTLMFSz4sfV_13nethsm_pkcs117backend2dbNtB2_2Db6remove
FNF:13
FNH:11
DA:13,0
DA:21,36
DA:22,36
DA:23,36
DA:24,36
DA:25,36
DA:26,36
DA:27,36
DA:29,30
DA:30,30
DA:31,30
DA:32,29
DA:33,29
DA:34,29
DA:35,29
DA:36,30
DA:37,30
DA:38,30
DA:40,1
DA:41,1
DA:42,1
DA:43,1
DA:44,0
DA:45,0
DA:46,1
DA:49,0
DA:50,0
DA:51,0
DA:52,0
DA:54,77
DA:55,77
DA:56,77
DA:57,77
DA:58,1816
DA:59,77
DA:61,93
DA:62,93
DA:63,93
DA:64,93
DA:65,93
DA:66,93
DA:67,556
DA:69,93
DA:70,0
DA:71,0
DA:72,93
DA:73,93
DA:74,93
DA:75,93
DA:76,93
DA:77,93
DA:78,93
DA:79,93
DA:80,93
DA:81,93
DA:82,93
DA:84,532
DA:85,532
DA:86,532
DA:88,1
DA:89,1
DA:90,1
BRF:0
BRH:0
LF:67
LH:58
end_of_record
SF:/home/sautax/git/nethsm-pkcs11/pkcs11/src/backend/db/object.rs
FN:490,_RNvMs2_NtNtNtCsggOPaNFMSYu_13nethsm_pkcs117backend2db6objectNtB5_6Object4attr
FN:36,_RNvXs4_NtNtNtCsggOPaNFMSYu_13nethsm_pkcs117backend2db6objectNtB5_4AttrNtNtCskl7yHyHAUN_4core5clone5Clone5cloneBb_
FN:136,_RNvXs7_NtNtNtCsggOPaNFMSYu_13nethsm_pkcs117backend2db6objectNtB5_10ObjectKindNtNtCskl7yHyHAUN_4core3fmt5Debug3fmt
FN:91,_RNvMNtNtNtCsggOPaNFMSYu_13nethsm_pkcs117backend2db6objectNtB2_4Attr16from_ck_key_type
FN:119,_RNvMNtNtNtCsggOPaNFMSYu_13nethsm_pkcs117backend2db6objectNtB2_4Attr20from_ck_object_class
FN:295,_RNvNtNtNtCsggOPaNFMSYu_13nethsm_pkcs117backend2db6object17configure_generic
FN:55,_RNvMNtNtNtCsggOPaNFMSYu_13nethsm_pkcs117backend2db6objectNtB2_4Attr3len
FN:103,_RNvMNtNtNtCsggOPaNFMSYu_13nethsm_pkcs117backend2db6objectNtB2_4Attr21from_ck_cert_category
FN:190,_RNvNtNtNtCsggOPaNFMSYu_13nethsm_pkcs117backend2db6object13configure_rsa
FN:36,_RNvXs3_NtNtNtCsggOPaNFMSYu_13nethsm_pkcs117backend2db6objectNtB5_4AttrNtNtCskl7yHyHAUN_4core3fmt5Debug3fmt
FN:231,_RNvNtNtNtCsggOPaNFMSYu_13nethsm_pkcs117backend2db6object12configure_ec
FN:108,_RNvMNtNtNtCsggOPaNFMSYu_13nethsm_pkcs117backend2db6objectNtB2_4Attr22from_ck_mechanism_type
FN:70,_RNvMNtNtNtCsggOPaNFMSYu_13nethsm_pkcs117backend2db6objectNtB2_4Attr8as_bytes
FN:169,_RNvXsa_NtNtNtCsggOPaNFMSYu_13nethsm_pkcs117backend2db6objectNtB5_6ObjectNtNtCskl7yHyHAUN_4core3fmt5Debug3fmt
FN:494,_RNvMs2_NtNtNtCsggOPaNFMSYu_13nethsm_pkcs117backend2db6objectNtB5_6Object18fill_attr_template
FN:146,_RNvXs0_NtNtNtCsggOPaNFMSYu_13nethsm_pkcs117backend2db6objectNtB5_10ObjectKindINtNtCskl7yHyHAUN_4core7convert4FromyE4from
FN:169,_RNvXsb_NtNtNtCsggOPaNFMSYu_13nethsm_pkcs117backend2db6objectNtB5_6ObjectNtNtCskl7yHyHAUN_4core5clone5Clone5cloneBb_
FN:323,_RNvNtNtNtCsggOPaNFMSYu_13nethsm_pkcs117backend2db6object13from_key_data
FN:97,_RNvMNtNtNtCsggOPaNFMSYu_13nethsm_pkcs117backend2db6objectNtB2_4Attr17from_ck_cert_type
FN:124,_RNvMNtNtNtCsggOPaNFMSYu_13nethsm_pkcs117backend2db6objectNtB2_4Attr13from_ck_ulong
FN:136,_RNvXs5_NtNtNtCsggOPaNFMSYu_13nethsm_pkcs117backend2db6objectNtB5_10ObjectKindNtNtCskl7yHyHAUN_4core5clone5Clone5cloneBb_
FN:136,_RNvXs9_NtNtNtCsggOPaNFMSYu_13nethsm_pkcs117backend2db6objectNtB5_10ObjectKindNtNtCskl7yHyHAUN_4core3cmp9PartialEq2eqBb_
FN:427,_RNvNtNtNtCsggOPaNFMSYu_13nethsm_pkcs117backend2db6object14from_cert_data
FN:255,_RNCNvNtNtNtCsggOPaNFMSYu_13nethsm_pkcs117backend2db6object12configure_ec0B9_
FN:266,_RNCNvNtNtNtCsggOPaNFMSYu_13nethsm_pkcs117backend2db6object12configure_ecs_0B9_
FN:178,_RNvXsc_NtNtNtCsggOPaNFMSYu_13nethsm_pkcs117backend2db6objectNtB5_7KeyPairNtNtCskl7yHyHAUN_4core3fmt5Debug3fmt
FN:86,_RNvMNtNtNtCsggOPaNFMSYu_13nethsm_pkcs117backend2db6objectNtB2_4Attr12from_ck_byte
FN:114,_RNvMNtNtNtCsggOPaNFMSYu_13nethsm_pkcs117backend2db6objectNtB2_4Attr26from_ck_mechanism_type_vec
FN:116,_RNCNvMNtNtNtCsggOPaNFMSYu_13nethsm_pkcs117backend2db6objectNtB4_4Attr26from_ck_mechanism_type_vec0Ba_
FN:178,_RNvXsd_NtNtNtCsggOPaNFMSYu_13nethsm_pkcs117backend2db6objectNtB5_7KeyPairNtNtCskl7yHyHAUN_4core5clone5Clone5cloneBb_
FN:131,_RNvXs_NtNtNtCsggOPaNFMSYu_13nethsm_pkcs117backend2db6objectNtB4_4AttrNtNtCskl7yHyHAUN_4core3cmp9PartialEq2eq
FN:158,_RNvXs1_NtNtNtCsggOPaNFMSYu_13nethsm_pkcs117backend2db6objectyINtNtCskl7yHyHAUN_4core7convert4FromNtB5_10ObjectKindE4from
FN:255,_RNCNvNtNtNtCsjTLMFSz4sfV_13nethsm_pkcs117backend2db6object12configure_ec0B9_
FN:266,_RNCNvNtNtNtCsjTLMFSz4sfV_13nethsm_pkcs117backend2db6object12configure_ecs_0B9_
FN:86,_RNvMNtNtNtCsjTLMFSz4sfV_13nethsm_pkcs117backend2db6objectNtB2_4Attr12from_ck_byte
FN:131,_RNvXs_NtNtNtCsjTLMFSz4sfV_13nethsm_pkcs117backend2db6objectNtB4_4AttrNtNtCskl7yHyHAUN_4core3cmp9PartialEq2eq
FN:178,_RNvXsc_NtNtNtCsjTLMFSz4sfV_13nethsm_pkcs117backend2db6objectNtB5_7KeyPairNtNtCskl7yHyHAUN_4core3fmt5Debug3fmt
FN:114,_RNvMNtNtNtCsjTLMFSz4sfV_13nethsm_pkcs117backend2db6objectNtB2_4Attr26from_ck_mechanism_type_vec
FN:158,_RNvXs1_NtNtNtCsjTLMFSz4sfV_13nethsm_pkcs117backend2db6objectyINtNtCskl7yHyHAUN_4core7convert4FromNtB5_10ObjectKindE4from
FN:116,_RNCNvMNtNtNtCsjTLMFSz4sfV_13nethsm_pkcs117backend2db6objectNtB4_4Attr26from_ck_mechanism_type_vec0Ba_
FN:178,_RNvXsd_NtNtNtCsjTLMFSz4sfV_13nethsm_pkcs117backend2db6objectNtB5_7KeyPairNtNtCskl7yHyHAUN_4core5clone5Clone5cloneBb_
FN:91,_RNvMNtNtNtCsjTLMFSz4sfV_13nethsm_pkcs117backend2db6objectNtB2_4Attr16from_ck_key_type
FN:119,_RNvMNtNtNtCsjTLMFSz4sfV_13nethsm_pkcs117backend2db6objectNtB2_4Attr20from_ck_object_class
FN:295,_RNvNtNtNtCsjTLMFSz4sfV_13nethsm_pkcs117backend2db6object17configure_generic
FN:55,_RNvMNtNtNtCsjTLMFSz4sfV_13nethsm_pkcs117backend2db6objectNtB2_4Attr3len
FN:103,_RNvMNtNtNtCsjTLMFSz4sfV_13nethsm_pkcs117backend2db6objectNtB2_4Attr21from_ck_cert_category
FN:190,_RNvNtNtNtCsjTLMFSz4sfV_13nethsm_pkcs117backend2db6object13configure_rsa
FN:427,_RNvNtNtNtCsjTLMFSz4sfV_13nethsm_pkcs117backend2db6object14from_cert_data
FN:36,_RNvXs3_NtNtNtCsjTLMFSz4sfV_13nethsm_pkcs117backend2db6objectNtB5_4AttrNtNtCskl7yHyHAUN_4core3fmt5Debug3fmt
FN:169,_RNvXsa_NtNtNtCsjTLMFSz4sfV_13nethsm_pkcs117backend2db6objectNtB5_6ObjectNtNtCskl7yHyHAUN_4core3fmt5Debug3fmt
FN:169,_RNvXsb_NtNtNtCsjTLMFSz4sfV_13nethsm_pkcs117backend2db6objectNtB5_6ObjectNtNtCskl7yHyHAUN_4core5clone5Clone5cloneBb_
FN:136,_RNvXs5_NtNtNtCsjTLMFSz4sfV_13nethsm_pkcs117backend2db6objectNtB5_10ObjectKindNtNtCskl7yHyHAUN_4core5clone5Clone5cloneBb_
FN:136,_RNvXs9_NtNtNtCsjTLMFSz4sfV_13nethsm_pkcs117backend2db6objectNtB5_10ObjectKindNtNtCskl7yHyHAUN_4core3cmp9PartialEq2eqBb_
FN:494,_RNvMs2_NtNtNtCsjTLMFSz4sfV_13nethsm_pkcs117backend2db6objectNtB5_6Object18fill_attr_template
FN:146,_RNvXs0_NtNtNtCsjTLMFSz4sfV_13nethsm_pkcs117backend2db6objectNtB5_10ObjectKindINtNtCskl7yHyHAUN_4core7convert4FromyE4from
FN:97,_RNvMNtNtNtCsjTLMFSz4sfV_13nethsm_pkcs117backend2db6objectNtB2_4Attr17from_ck_cert_type
FN:124,_RNvMNtNtNtCsjTLMFSz4sfV_13nethsm_pkcs117backend2db6objectNtB2_4Attr13from_ck_ulong
FN:323,_RNvNtNtNtCsjTLMFSz4sfV_13nethsm_pkcs117backend2db6object13from_key_data
FN:70,_RNvMNtNtNtCsjTLMFSz4sfV_13nethsm_pkcs117backend2db6objectNtB2_4Attr8as_bytes
FN:108,_RNvMNtNtNtCsjTLMFSz4sfV_13nethsm_pkcs117backend2db6objectNtB2_4Attr22from_ck_mechanism_type
FN:231,_RNvNtNtNtCsjTLMFSz4sfV_13nethsm_pkcs117backend2db6object12configure_ec
FN:36,_RNvXs4_NtNtNtCsjTLMFSz4sfV_13nethsm_pkcs117backend2db6objectNtB5_4AttrNtNtCskl7yHyHAUN_4core5clone5Clone5cloneBb_
FN:136,_RNvXs7_NtNtNtCsjTLMFSz4sfV_13nethsm_pkcs117backend2db6objectNtB5_10ObjectKindNtNtCskl7yHyHAUN_4core3fmt5Debug3fmt
FN:490,_RNvMs2_NtNtNtCsjTLMFSz4sfV_13nethsm_pkcs117backend2db6objectNtB5_6Object4attr
FNDA:498,_RNvMs2_NtNtNtCsggOPaNFMSYu_13nethsm_pkcs117backend2db6objectNtB5_6Object4attr
FNDA:52165,_RNvXs4_NtNtNtCsggOPaNFMSYu_13nethsm_pkcs117backend2db6objectNtB5_4AttrNtNtCskl7yHyHAUN_4core5clone5Clone5cloneBb_
FNDA:0,_RNvXs7_NtNtNtCsggOPaNFMSYu_13nethsm_pkcs117backend2db6objectNtB5_10ObjectKindNtNtCskl7yHyHAUN_4core3fmt5Debug3fmt
FNDA:93,_RNvMNtNtNtCsggOPaNFMSYu_13nethsm_pkcs117backend2db6objectNtB2_4Attr16from_ck_key_type
FNDA:102,_RNvMNtNtNtCsggOPaNFMSYu_13nethsm_pkcs117backend2db6objectNtB2_4Attr20from_ck_object_class
FNDA:9,_RNvNtNtNtCsggOPaNFMSYu_13nethsm_pkcs117backend2db6object17configure_generic
FNDA:472,_RNvMNtNtNtCsggOPaNFMSYu_13nethsm_pkcs117backend2db6objectNtB2_4Attr3len
FNDA:0,_RNvMNtNtNtCsggOPaNFMSYu_13nethsm_pkcs117backend2db6objectNtB2_4Attr21from_ck_cert_category
FNDA:12,_RNvNtNtNtCsggOPaNFMSYu_13nethsm_pkcs117backend2db6object13configure_rsa
FNDA:0,_RNvXs3_NtNtNtCsggOPaNFMSYu_13nethsm_pkcs117backend2db6objectNtB5_4AttrNtNtCskl7yHyHAUN_4core3fmt5Debug3fmt
FNDA:30,_RNvNtNtNtCsggOPaNFMSYu_13nethsm_pkcs117backend2db6object12configure_ec
FNDA:51,_RNvMNtNtNtCsggOPaNFMSYu_13nethsm_pkcs117backend2db6objectNtB2_4Attr22from_ck_mechanism_type
FNDA:472,_RNvMNtNtNtCsggOPaNFMSYu_13nethsm_pkcs117backend2db6objectNtB2_4Attr8as_bytes
FNDA:0,_RNvXsa_NtNtNtCsggOPaNFMSYu_13nethsm_pkcs117backend2db6objectNtB5_6ObjectNtNtCskl7yHyHAUN_4core3fmt5Debug3fmt
FNDA:497,_RNvMs2_NtNtNtCsggOPaNFMSYu_13nethsm_pkcs117backend2db6objectNtB5_6Object18fill_attr_template
FNDA:93,_RNvXs0_NtNtNtCsggOPaNFMSYu_13nethsm_pkcs117backend2db6objectNtB5_10ObjectKindINtNtCskl7yHyHAUN_4core7convert4FromyE4from
FNDA:1835,_RNvXsb_NtNtNtCsggOPaNFMSYu_13nethsm_pkcs117backend2db6objectNtB5_6ObjectNtNtCskl7yHyHAUN_4core5clone5Clone5cloneBb_
FNDA:51,_RNvNtNtNtCsggOPaNFMSYu_13nethsm_pkcs117backend2db6object13from_key_data
FNDA:0,_RNvMNtNtNtCsggOPaNFMSYu_13nethsm_pkcs117backend2db6objectNtB2_4Attr17from_ck_cert_type
FNDA:21,_RNvMNtNtNtCsggOPaNFMSYu_13nethsm_pkcs117backend2db6objectNtB2_4Attr13from_ck_ulong
FNDA:1835,_RNvXs5_NtNtNtCsggOPaNFMSYu_13nethsm_pkcs117backend2db6objectNtB5_10ObjectKindNtNtCskl7yHyHAUN_4core5clone5Clone5cloneBb_
FNDA:1160,_RNvXs9_NtNtNtCsggOPaNFMSYu_13nethsm_pkcs117backend2db6objectNtB5_10ObjectKindNtNtCskl7yHyHAUN_4core3cmp9PartialEq2eqBb_
FNDA:0,_RNvNtNtNtCsggOPaNFMSYu_13nethsm_pkcs117backend2db6object14from_cert_data
FNDA:30,_RNCNvNtNtNtCsggOPaNFMSYu_13nethsm_pkcs117backend2db6object12configure_ec0B9_
FNDA:30,_RNCNvNtNtNtCsggOPaNFMSYu_13nethsm_pkcs117backend2db6object12configure_ecs_0B9_
FNDA:0,_RNvXsc_NtNtNtCsggOPaNFMSYu_13nethsm_pkcs117backend2db6objectNtB5_7KeyPairNtNtCskl7yHyHAUN_4core3fmt5Debug3fmt
FNDA:0,_RNvMNtNtNtCsggOPaNFMSYu_13nethsm_pkcs117backend2db6objectNtB2_4Attr12from_ck_byte
FNDA:0,_RNvMNtNtNtCsggOPaNFMSYu_13nethsm_pkcs117backend2db6objectNtB2_4Attr26from_ck_mechanism_type_vec
FNDA:0,_RNCNvMNtNtNtCsggOPaNFMSYu_13nethsm_pkcs117backend2db6objectNtB4_4Attr26from_ck_mechanism_type_vec0Ba_
FNDA:0,_RNvXsd_NtNtNtCsggOPaNFMSYu_13nethsm_pkcs117backend2db6objectNtB5_7KeyPairNtNtCskl7yHyHAUN_4core5clone5Clone5cloneBb_
FNDA:0,_RNvXs_NtNtNtCsggOPaNFMSYu_13nethsm_pkcs117backend2db6objectNtB4_4AttrNtNtCskl7yHyHAUN_4core3cmp9PartialEq2eq
FNDA:0,_RNvXs1_NtNtNtCsggOPaNFMSYu_13nethsm_pkcs117backend2db6objectyINtNtCskl7yHyHAUN_4core7convert4FromNtB5_10ObjectKindE4from
FNDA:0,_RNCNvNtNtNtCsjTLMFSz4sfV_13nethsm_pkcs117backend2db6object12configure_ec0B9_
FNDA:0,_RNCNvNtNtNtCsjTLMFSz4sfV_13nethsm_pkcs117backend2db6object12configure_ecs_0B9_
FNDA:0,_RNvMNtNtNtCsjTLMFSz4sfV_13nethsm_pkcs117backend2db6objectNtB2_4Attr12from_ck_byte
FNDA:0,_RNvXs_NtNtNtCsjTLMFSz4sfV_13nethsm_pkcs117backend2db6objectNtB4_4AttrNtNtCskl7yHyHAUN_4core3cmp9PartialEq2eq
FNDA:0,_RNvXsc_NtNtNtCsjTLMFSz4sfV_13nethsm_pkcs117backend2db6objectNtB5_7KeyPairNtNtCskl7yHyHAUN_4core3fmt5Debug3fmt
FNDA:0,_RNvMNtNtNtCsjTLMFSz4sfV_13nethsm_pkcs117backend2db6objectNtB2_4Attr26from_ck_mechanism_type_vec
FNDA:0,_RNvXs1_NtNtNtCsjTLMFSz4sfV_13nethsm_pkcs117backend2db6objectyINtNtCskl7yHyHAUN_4core7convert4FromNtB5_10ObjectKindE4from
FNDA:0,_RNCNvMNtNtNtCsjTLMFSz4sfV_13nethsm_pkcs117backend2db6objectNtB4_4Attr26from_ck_mechanism_type_vec0Ba_
FNDA:0,_RNvXsd_NtNtNtCsjTLMFSz4sfV_13nethsm_pkcs117backend2db6objectNtB5_7KeyPairNtNtCskl7yHyHAUN_4core5clone5Clone5cloneBb_
FNDA:0,_RNvMNtNtNtCsjTLMFSz4sfV_13nethsm_pkcs117backend2db6objectNtB2_4Attr16from_ck_key_type
FNDA:0,_RNvMNtNtNtCsjTLMFSz4sfV_13nethsm_pkcs117backend2db6objectNtB2_4Attr20from_ck_object_class
FNDA:0,_RNvNtNtNtCsjTLMFSz4sfV_13nethsm_pkcs117backend2db6object17configure_generic
FNDA:0,_RNvMNtNtNtCsjTLMFSz4sfV_13nethsm_pkcs117backend2db6objectNtB2_4Attr3len
FNDA:0,_RNvMNtNtNtCsjTLMFSz4sfV_13nethsm_pkcs117backend2db6objectNtB2_4Attr21from_ck_cert_category
FNDA:0,_RNvNtNtNtCsjTLMFSz4sfV_13nethsm_pkcs117backend2db6object13configure_rsa
FNDA:0,_RNvNtNtNtCsjTLMFSz4sfV_13nethsm_pkcs117backend2db6object14from_cert_data
FNDA:0,_RNvXs3_NtNtNtCsjTLMFSz4sfV_13nethsm_pkcs117backend2db6objectNtB5_4AttrNtNtCskl7yHyHAUN_4core3fmt5Debug3fmt
FNDA:0,_RNvXsa_NtNtNtCsjTLMFSz4sfV_13nethsm_pkcs117backend2db6objectNtB5_6ObjectNtNtCskl7yHyHAUN_4core3fmt5Debug3fmt
FNDA:0,_RNvXsb_NtNtNtCsjTLMFSz4sfV_13nethsm_pkcs117backend2db6objectNtB5_6ObjectNtNtCskl7yHyHAUN_4core5clone5Clone5cloneBb_
FNDA:0,_RNvXs5_NtNtNtCsjTLMFSz4sfV_13nethsm_pkcs117backend2db6objectNtB5_10ObjectKindNtNtCskl7yHyHAUN_4core5clone5Clone5cloneBb_
FNDA:0,_RNvXs9_NtNtNtCsjTLMFSz4sfV_13nethsm_pkcs117backend2db6objectNtB5_10ObjectKindNtNtCskl7yHyHAUN_4core3cmp9PartialEq2eqBb_
FNDA:0,_RNvMs2_NtNtNtCsjTLMFSz4sfV_13nethsm_pkcs117backend2db6objectNtB5_6Object18fill_attr_template
FNDA:0,_RNvXs0_NtNtNtCsjTLMFSz4sfV_13nethsm_pkcs117backend2db6objectNtB5_10ObjectKindINtNtCskl7yHyHAUN_4core7convert4FromyE4from
FNDA:0,_RNvMNtNtNtCsjTLMFSz4sfV_13nethsm_pkcs117backend2db6objectNtB2_4Attr17from_ck_cert_type
FNDA:0,_RNvMNtNtNtCsjTLMFSz4sfV_13nethsm_pkcs117backend2db6objectNtB2_4Attr13from_ck_ulong
FNDA:0,_RNvNtNtNtCsjTLMFSz4sfV_13nethsm_pkcs117backend2db6object13from_key_data
FNDA:0,_RNvMNtNtNtCsjTLMFSz4sfV_13nethsm_pkcs117backend2db6objectNtB2_4Attr8as_bytes
FNDA:0,_RNvMNtNtNtCsjTLMFSz4sfV_13nethsm_pkcs117backend2db6objectNtB2_4Attr22from_ck_mechanism_type
FNDA:0,_RNvNtNtNtCsjTLMFSz4sfV_13nethsm_pkcs117backend2db6object12configure_ec
FNDA:0,_RNvXs4_NtNtNtCsjTLMFSz4sfV_13nethsm_pkcs117backend2db6objectNtB5_4AttrNtNtCskl7yHyHAUN_4core5clone5Clone5cloneBb_
FNDA:0,_RNvXs7_NtNtNtCsjTLMFSz4sfV_13nethsm_pkcs117backend2db6objectNtB5_10ObjectKindNtNtCskl7yHyHAUN_4core3fmt5Debug3fmt
FNDA:0,_RNvMs2_NtNtNtCsjTLMFSz4sfV_13nethsm_pkcs117backend2db6objectNtB5_6Object4attr
FNF:32
FNH:19
DA:36,52165
DA:55,472
DA:56,472
DA:57,145
DA:58,0
DA:59,52
DA:60,0
DA:61,0
DA:62,0
DA:63,28
DA:64,13
DA:65,234
DA:66,0
DA:68,472
DA:70,472
DA:71,472
DA:72,145
DA:73,0
DA:74,52
DA:75,0
DA:76,0
DA:77,0
DA:78,28
DA:79,13
DA:80,234
DA:81,0
DA:83,472
DA:86,0
DA:87,0
DA:88,0
DA:89,0
DA:91,93
DA:92,93
DA:93,93
DA:94,93
DA:97,0
DA:98,0
DA:99,0
DA:100,0
DA:103,0
DA:104,0
DA:105,0
DA:106,0
DA:108,51
DA:109,51
DA:110,51
DA:111,51
DA:114,0
DA:115,0
DA:116,0
DA:117,0
DA:119,102
DA:120,102
DA:121,102
DA:122,102
DA:124,21
DA:125,21
DA:126,21
DA:127,21
DA:131,0
DA:132,0
DA:133,0
DA:136,1835
DA:146,93
DA:147,93
DA:148,58
DA:149,31
DA:150,4
DA:151,0
DA:152,0
DA:154,93
DA:158,0
DA:159,0
DA:160,0
DA:161,0
DA:162,0
DA:163,0
DA:164,0
DA:166,0
DA:169,1835
DA:178,0
DA:190,12
DA:191,12
DA:192,12
DA:193,12
DA:194,12
DA:196,12
DA:197,12
DA:198,12
DA:199,12
DA:200,12
DA:201,12
DA:202,12
DA:203,12
DA:204,12
DA:205,12
DA:207,12
DA:208,12
DA:209,12
DA:210,12
DA:211,12
DA:212,12
DA:213,12
DA:214,12
DA:215,12
DA:216,12
DA:217,12
DA:218,12
DA:219,12
DA:220,12
DA:221,12
DA:222,12
DA:223,12
DA:224,12
DA:225,12
DA:226,12
DA:227,12
DA:228,12
DA:229,12
DA:231,30
DA:232,30
DA:233,30
DA:234,30
DA:235,30
DA:237,30
DA:238,30
DA:240,30
DA:242,30
DA:244,30
DA:246,30
DA:249,30
DA:250,0
DA:251,0
DA:253,30
DA:255,30
DA:256,30
DA:257,30
DA:258,30
DA:259,30
DA:261,30
DA:262,30
DA:263,30
DA:264,30
DA:266,30
DA:267,30
DA:268,30
DA:270,30
DA:271,6
DA:272,24
DA:275,30
DA:276,30
DA:277,30
DA:278,30
DA:279,30
DA:280,30
DA:281,30
DA:282,30
DA:283,30
DA:284,30
DA:285,30
DA:286,30
DA:287,30
DA:288,30
DA:289,30
DA:290,30
DA:291,30
DA:292,30
DA:295,9
DA:296,9
DA:297,9
DA:298,9
DA:299,9
DA:300,9
DA:301,9
DA:302,9
DA:303,9
DA:304,9
DA:305,9
DA:306,9
DA:307,9
DA:308,9
DA:309,9
DA:310,9
DA:311,9
DA:312,9
DA:313,9
DA:314,9
DA:315,9
DA:316,9
DA:317,9
DA:318,9
DA:319,9
DA:320,9
DA:321,9
DA:323,51
DA:324,51
DA:325,51
DA:326,51
DA:327,51
DA:328,51
DA:330,51
DA:331,0
DA:332,51
DA:333,51
DA:334,51
DA:336,51
DA:337,51
DA:338,51
DA:339,51
DA:340,51
DA:341,51
DA:342,51
DA:343,51
DA:344,51
DA:345,51
DA:346,51
DA:347,51
DA:348,51
DA:349,51
DA:350,51
DA:351,51
DA:352,51
DA:353,51
DA:354,51
DA:355,51
DA:356,51
DA:357,51
DA:359,51
DA:360,12
DA:365,30
DA:366,9
DA:368,51
DA:369,51
DA:370,51
DA:371,51
DA:372,51
DA:373,51
DA:374,51
DA:375,51
DA:376,51
DA:377,51
DA:378,51
DA:379,9
DA:380,9
DA:381,9
DA:382,9
DA:383,9
DA:384,9
DA:385,42
DA:386,42
DA:387,42
DA:388,42
DA:389,42
DA:390,42
DA:391,42
DA:392,42
DA:393,42
DA:394,42
DA:395,42
DA:396,42
DA:397,42
DA:398,42
DA:399,42
DA:400,42
DA:401,42
DA:402,42
DA:403,42
DA:404,42
DA:405,42
DA:406,42
DA:407,42
DA:408,42
DA:409,42
DA:410,42
DA:411,42
DA:412,42
DA:413,42
DA:414,42
DA:415,42
DA:416,42
DA:417,42
DA:418,42
DA:419,42
DA:420,42
DA:421,42
DA:422,42
DA:423,42
DA:424,42
DA:425,51
DA:427,0
DA:428,0
DA:429,0
DA:430,0
DA:431,0
DA:432,0
DA:434,0
DA:435,0
DA:436,0
DA:437,0
DA:438,0
DA:439,0
DA:440,0
DA:441,0
DA:442,0
DA:443,0
DA:444,0
DA:445,0
DA:446,0
DA:447,0
DA:448,0
DA:449,0
DA:450,0
DA:451,0
DA:452,0
DA:453,0
DA:454,0
DA:455,0
DA:456,0
DA:457,0
DA:458,0
DA:459,0
DA:460,0
DA:461,0
DA:462,0
DA:463,0
DA:464,0
DA:465,0
DA:466,0
DA:467,0
DA:468,0
DA:469,0
DA:470,0
DA:474,0
DA:476,0
DA:477,0
DA:478,0
DA:479,0
DA:480,0
DA:481,0
DA:482,0
DA:483,0
DA:484,0
DA:485,0
DA:486,0
DA:487,0
DA:490,498
DA:491,498
DA:492,498
DA:494,497
DA:495,497
DA:497,498
DA:498,498
DA:499,472
DA:500,472
DA:502,0
DA:503,0
DA:504,0
DA:506,472
DA:508,116
DA:509,0
DA:510,0
DA:511,0
DA:512,0
DA:513,472
DA:516,26
DA:517,26
DA:518,26
DA:519,26
DA:521,498
DA:522,0
DA:523,0
DA:527,497
DA:528,497
BRF:0
BRH:0
LF:383
LH:270
end_of_record
SF:/home/sautax/git/nethsm-pkcs11/pkcs11/src/backend/decrypt.rs
FN:78,_RNCNvMNtNtCsggOPaNFMSYu_13nethsm_pkcs117backend7decryptNtB4_10DecryptCtx13decrypt_finals_0B8_
FN:81,_RNCNCNCNvMNtNtCsggOPaNFMSYu_13nethsm_pkcs117backend7decryptNtB8_10DecryptCtx13decrypt_finals_000Bc_
FN:74,_RNCNvMNtNtCsggOPaNFMSYu_13nethsm_pkcs117backend7decryptNtB4_10DecryptCtx13decrypt_final0B8_
FN:15,_RNvXs_NtNtCsggOPaNFMSYu_13nethsm_pkcs117backend7decryptNtB4_10DecryptCtxNtNtCskl7yHyHAUN_4core5clone5Clone5cloneB8_
FN:15,_RNvXs0_NtNtCsggOPaNFMSYu_13nethsm_pkcs117backend7decryptNtB5_10DecryptCtxNtNtCskl7yHyHAUN_4core3fmt5Debug3fmt
FN:55,_RNvMNtNtCsggOPaNFMSYu_13nethsm_pkcs117backend7decryptNtB2_10DecryptCtx13decrypt_final
FN:24,_RNvMNtNtCsggOPaNFMSYu_13nethsm_pkcs117backend7decryptNtB2_10DecryptCtx4init
FN:51,_RNvMNtNtCsggOPaNFMSYu_13nethsm_pkcs117backend7decryptNtB2_10DecryptCtx6update
FN:78,_RNCNvMNtNtCsjTLMFSz4sfV_13nethsm_pkcs117backend7decryptNtB4_10DecryptCtx13decrypt_finals_0B8_
FN:81,_RNCNCNCNvMNtNtCsjTLMFSz4sfV_13nethsm_pkcs117backend7decryptNtB8_10DecryptCtx13decrypt_finals_000Bc_
FN:74,_RNCNvMNtNtCsjTLMFSz4sfV_13nethsm_pkcs117backend7decryptNtB4_10DecryptCtx13decrypt_final0B8_
FN:15,_RNvXs0_NtNtCsjTLMFSz4sfV_13nethsm_pkcs117backend7decryptNtB5_10DecryptCtxNtNtCskl7yHyHAUN_4core3fmt5Debug3fmt
FN:15,_RNvXs_NtNtCsjTLMFSz4sfV_13nethsm_pkcs117backend7decryptNtB4_10DecryptCtxNtNtCskl7yHyHAUN_4core5clone5Clone5cloneB8_
FN:51,_RNvMNtNtCsjTLMFSz4sfV_13nethsm_pkcs117backend7decryptNtB2_10DecryptCtx6update
FN:24,_RNvMNtNtCsjTLMFSz4sfV_13nethsm_pkcs117backend7decryptNtB2_10DecryptCtx4init
FN:55,_RNvMNtNtCsjTLMFSz4sfV_13nethsm_pkcs117backend7decryptNtB2_10DecryptCtx13decrypt_final
FNDA:12,_RNCNvMNtNtCsggOPaNFMSYu_13nethsm_pkcs117backend7decryptNtB4_10DecryptCtx13decrypt_finals_0B8_
FNDA:12,_RNCNCNCNvMNtNtCsggOPaNFMSYu_13nethsm_pkcs117backend7decryptNtB8_10DecryptCtx13decrypt_finals_000Bc_
FNDA:1,_RNCNvMNtNtCsggOPaNFMSYu_13nethsm_pkcs117backend7decryptNtB4_10DecryptCtx13decrypt_final0B8_
FNDA:0,_RNvXs_NtNtCsggOPaNFMSYu_13nethsm_pkcs117backend7decryptNtB4_10DecryptCtxNtNtCskl7yHyHAUN_4core5clone5Clone5cloneB8_
FNDA:0,_RNvXs0_NtNtCsggOPaNFMSYu_13nethsm_pkcs117backend7decryptNtB5_10DecryptCtxNtNtCskl7yHyHAUN_4core3fmt5Debug3fmt
FNDA:12,_RNvMNtNtCsggOPaNFMSYu_13nethsm_pkcs117backend7decryptNtB2_10DecryptCtx13decrypt_final
FNDA:12,_RNvMNtNtCsggOPaNFMSYu_13nethsm_pkcs117backend7decryptNtB2_10DecryptCtx4init
FNDA:12,_RNvMNtNtCsggOPaNFMSYu_13nethsm_pkcs117backend7decryptNtB2_10DecryptCtx6update
FNDA:0,_RNCNvMNtNtCsjTLMFSz4sfV_13nethsm_pkcs117backend7decryptNtB4_10DecryptCtx13decrypt_finals_0B8_
FNDA:0,_RNCNCNCNvMNtNtCsjTLMFSz4sfV_13nethsm_pkcs117backend7decryptNtB8_10DecryptCtx13decrypt_finals_000Bc_
FNDA:0,_RNCNvMNtNtCsjTLMFSz4sfV_13nethsm_pkcs117backend7decryptNtB4_10DecryptCtx13decrypt_final0B8_
FNDA:0,_RNvXs0_NtNtCsjTLMFSz4sfV_13nethsm_pkcs117backend7decryptNtB5_10DecryptCtxNtNtCskl7yHyHAUN_4core3fmt5Debug3fmt
FNDA:0,_RNvXs_NtNtCsjTLMFSz4sfV_13nethsm_pkcs117backend7decryptNtB4_10DecryptCtxNtNtCskl7yHyHAUN_4core5clone5Clone5cloneB8_
FNDA:0,_RNvMNtNtCsjTLMFSz4sfV_13nethsm_pkcs117backend7decryptNtB2_10DecryptCtx6update
FNDA:0,_RNvMNtNtCsjTLMFSz4sfV_13nethsm_pkcs117backend7decryptNtB2_10DecryptCtx4init
FNDA:0,_RNvMNtNtCsjTLMFSz4sfV_13nethsm_pkcs117backend7decryptNtB2_10DecryptCtx13decrypt_final
FNF:8
FNH:6
DA:15,0
DA:24,12
DA:25,12
DA:26,0
DA:27,12
DA:29,12
DA:30,12
DA:31,12
DA:32,12
DA:33,12
DA:34,12
DA:35,12
DA:37,12
DA:38,0
DA:39,0
DA:40,0
DA:41,0
DA:42,12
DA:43,12
DA:44,12
DA:45,12
DA:46,12
DA:47,12
DA:48,12
DA:49,12
DA:50,12
DA:51,12
DA:52,12
DA:53,12
DA:55,12
DA:56,12
DA:57,0
DA:58,12
DA:59,12
DA:60,12
DA:62,12
DA:63,12
DA:64,12
DA:65,12
DA:66,12
DA:67,12
DA:68,12
DA:69,12
DA:71,12
DA:72,12
DA:73,12
DA:74,12
DA:75,12
DA:76,12
DA:78,12
DA:79,12
DA:80,12
DA:81,12
DA:82,12
DA:83,12
DA:84,12
DA:85,12
DA:86,12
DA:87,12
DA:88,12
DA:89,12
DA:90,12
DA:91,24
DA:92,12
DA:93,12
DA:94,12
DA:95,24
DA:96,12
DA:98,12
DA:99,12
BRF:0
BRH:0
LF:76
LH:68
end_of_record
SF:/home/sautax/git/nethsm-pkcs11/pkcs11/src/backend/encrypt.rs
FN:144,_RNCNvNtNtCsggOPaNFMSYu_13nethsm_pkcs117backend7encrypt12encrypt_datas0_0B7_
FN:127,_RNCNCNCNvNtNtCsggOPaNFMSYu_13nethsm_pkcs117backend7encrypt12encrypt_datas_000Bb_
FN:120,_RNCNvNtNtCsggOPaNFMSYu_13nethsm_pkcs117backend7encrypt12encrypt_data0B7_
FN:124,_RNCNvNtNtCsggOPaNFMSYu_13nethsm_pkcs117backend7encrypt12encrypt_datas_0B7_
FN:21,_RNvXs_NtNtCsggOPaNFMSYu_13nethsm_pkcs117backend7encryptNtB4_10EncryptCtxNtNtCskl7yHyHAUN_4core5clone5Clone5cloneB8_
FN:21,_RNvXs0_NtNtCsggOPaNFMSYu_13nethsm_pkcs117backend7encryptNtB5_10EncryptCtxNtNtCskl7yHyHAUN_4core3fmt5Debug3fmt
FN:69,_RNvMNtNtCsggOPaNFMSYu_13nethsm_pkcs117backend7encryptNtB2_10EncryptCtx21get_biggest_chunk_len
FN:75,_RNvMNtNtCsggOPaNFMSYu_13nethsm_pkcs117backend7encryptNtB2_10EncryptCtx22encrypt_available_data
FN:104,_RNvNtNtCsggOPaNFMSYu_13nethsm_pkcs117backend7encrypt12encrypt_data
FN:30,_RNvMNtNtCsggOPaNFMSYu_13nethsm_pkcs117backend7encryptNtB2_10EncryptCtx4init
FN:94,_RNvMNtNtCsggOPaNFMSYu_13nethsm_pkcs117backend7encryptNtB2_10EncryptCtx13encrypt_final
FN:65,_RNvMNtNtCsggOPaNFMSYu_13nethsm_pkcs117backend7encryptNtB2_10EncryptCtx8add_data
FN:94,_RNvMNtNtCsjTLMFSz4sfV_13nethsm_pkcs117backend7encryptNtB2_10EncryptCtx13encrypt_final
FN:65,_RNvMNtNtCsjTLMFSz4sfV_13nethsm_pkcs117backend7encryptNtB2_10EncryptCtx8add_data
FN:30,_RNvMNtNtCsjTLMFSz4sfV_13nethsm_pkcs117backend7encryptNtB2_10EncryptCtx4init
FN:69,_RNvMNtNtCsjTLMFSz4sfV_13nethsm_pkcs117backend7encryptNtB2_10EncryptCtx21get_biggest_chunk_len
FN:104,_RNvNtNtCsjTLMFSz4sfV_13nethsm_pkcs117backend7encrypt12encrypt_data
FN:75,_RNvMNtNtCsjTLMFSz4sfV_13nethsm_pkcs117backend7encryptNtB2_10EncryptCtx22encrypt_available_data
FN:21,_RNvXs0_NtNtCsjTLMFSz4sfV_13nethsm_pkcs117backend7encryptNtB5_10EncryptCtxNtNtCskl7yHyHAUN_4core3fmt5Debug3fmt
FN:21,_RNvXs_NtNtCsjTLMFSz4sfV_13nethsm_pkcs117backend7encryptNtB4_10EncryptCtxNtNtCskl7yHyHAUN_4core5clone5Clone5cloneB8_
FN:120,_RNCNvNtNtCsjTLMFSz4sfV_13nethsm_pkcs117backend7encrypt12encrypt_data0B7_
FN:144,_RNCNvNtNtCsjTLMFSz4sfV_13nethsm_pkcs117backend7encrypt12encrypt_datas0_0B7_
FN:124,_RNCNvNtNtCsjTLMFSz4sfV_13nethsm_pkcs117backend7encrypt12encrypt_datas_0B7_
FN:127,_RNCNCNCNvNtNtCsjTLMFSz4sfV_13nethsm_pkcs117backend7encrypt12encrypt_datas_000Bb_
FNDA:0,_RNCNvNtNtCsggOPaNFMSYu_13nethsm_pkcs117backend7encrypt12encrypt_datas0_0B7_
FNDA:1,_RNCNCNCNvNtNtCsggOPaNFMSYu_13nethsm_pkcs117backend7encrypt12encrypt_datas_000Bb_
FNDA:1,_RNCNvNtNtCsggOPaNFMSYu_13nethsm_pkcs117backend7encrypt12encrypt_data0B7_
FNDA:1,_RNCNvNtNtCsggOPaNFMSYu_13nethsm_pkcs117backend7encrypt12encrypt_datas_0B7_
FNDA:0,_RNvXs_NtNtCsggOPaNFMSYu_13nethsm_pkcs117backend7encryptNtB4_10EncryptCtxNtNtCskl7yHyHAUN_4core5clone5Clone5cloneB8_
FNDA:0,_RNvXs0_NtNtCsggOPaNFMSYu_13nethsm_pkcs117backend7encryptNtB5_10EncryptCtxNtNtCskl7yHyHAUN_4core3fmt5Debug3fmt
FNDA:0,_RNvMNtNtCsggOPaNFMSYu_13nethsm_pkcs117backend7encryptNtB2_10EncryptCtx21get_biggest_chunk_len
FNDA:0,_RNvMNtNtCsggOPaNFMSYu_13nethsm_pkcs117backend7encryptNtB2_10EncryptCtx22encrypt_available_data
FNDA:1,_RNvNtNtCsggOPaNFMSYu_13nethsm_pkcs117backend7encrypt12encrypt_data
FNDA:1,_RNvMNtNtCsggOPaNFMSYu_13nethsm_pkcs117backend7encryptNtB2_10EncryptCtx4init
FNDA:1,_RNvMNtNtCsggOPaNFMSYu_13nethsm_pkcs117backend7encryptNtB2_10EncryptCtx13encrypt_final
FNDA:1,_RNvMNtNtCsggOPaNFMSYu_13nethsm_pkcs117backend7encryptNtB2_10EncryptCtx8add_data
FNDA:0,_RNvMNtNtCsjTLMFSz4sfV_13nethsm_pkcs117backend7encryptNtB2_10EncryptCtx13encrypt_final
FNDA:0,_RNvMNtNtCsjTLMFSz4sfV_13nethsm_pkcs117backend7encryptNtB2_10EncryptCtx8add_data
FNDA:0,_RNvMNtNtCsjTLMFSz4sfV_13nethsm_pkcs117backend7encryptNtB2_10EncryptCtx4init
FNDA:0,_RNvMNtNtCsjTLMFSz4sfV_13nethsm_pkcs117backend7encryptNtB2_10EncryptCtx21get_biggest_chunk_len
FNDA:0,_RNvNtNtCsjTLMFSz4sfV_13nethsm_pkcs117backend7encrypt12encrypt_data
FNDA:0,_RNvMNtNtCsjTLMFSz4sfV_13nethsm_pkcs117backend7encryptNtB2_10EncryptCtx22encrypt_available_data
FNDA:0,_RNvXs0_NtNtCsjTLMFSz4sfV_13nethsm_pkcs117backend7encryptNtB5_10EncryptCtxNtNtCskl7yHyHAUN_4core3fmt5Debug3fmt
FNDA:0,_RNvXs_NtNtCsjTLMFSz4sfV_13nethsm_pkcs117backend7encryptNtB4_10EncryptCtxNtNtCskl7yHyHAUN_4core5clone5Clone5cloneB8_
FNDA:0,_RNCNvNtNtCsjTLMFSz4sfV_13nethsm_pkcs117backend7encrypt12encrypt_data0B7_
FNDA:0,_RNCNvNtNtCsjTLMFSz4sfV_13nethsm_pkcs117backend7encrypt12encrypt_datas0_0B7_
FNDA:0,_RNCNvNtNtCsjTLMFSz4sfV_13nethsm_pkcs117backend7encrypt12encrypt_datas_0B7_
FNDA:0,_RNCNCNCNvNtNtCsjTLMFSz4sfV_13nethsm_pkcs117backend7encrypt12encrypt_datas_000Bb_
FNF:12
FNH:7
DA:21,0
DA:30,1
DA:31,1
DA:32,0
DA:33,1
DA:35,1
DA:36,1
DA:38,0
DA:39,0
DA:42,0
DA:46,1
DA:47,0
DA:48,0
DA:51,0
DA:52,0
DA:53,0
DA:54,0
DA:55,1
DA:56,1
DA:57,1
DA:58,1
DA:59,1
DA:60,1
DA:61,1
DA:62,1
DA:63,1
DA:65,1
DA:66,1
DA:67,1
DA:69,0
DA:70,0
DA:71,0
DA:72,0
DA:73,0
DA:75,0
DA:76,0
DA:77,0
DA:78,0
DA:79,0
DA:80,0
DA:81,0
DA:82,0
DA:83,0
DA:84,0
DA:85,0
DA:86,0
DA:87,0
DA:88,0
DA:89,0
DA:90,0
DA:91,0
DA:92,0
DA:94,1
DA:95,1
DA:96,1
DA:97,1
DA:98,1
DA:99,1
DA:100,1
DA:101,1
DA:104,1
DA:105,1
DA:106,1
DA:107,1
DA:108,1
DA:109,1
DA:110,1
DA:112,1
DA:113,1
DA:114,1
DA:115,1
DA:116,1
DA:118,1
DA:119,1
DA:120,1
DA:121,1
DA:123,1
DA:124,1
DA:125,1
DA:126,1
DA:127,1
DA:128,1
DA:129,1
DA:130,1
DA:131,1
DA:132,1
DA:133,1
DA:134,1
DA:135,1
DA:136,1
DA:137,1
DA:138,1
DA:139,1
DA:140,1
DA:141,1
DA:142,1
DA:143,1
DA:144,0
DA:145,0
DA:146,0
DA:147,0
DA:148,0
DA:149,0
DA:150,0
DA:151,0
DA:152,0
DA:153,1
DA:155,1
DA:156,1
BRF:0
BRH:0
LF:116
LH:71
end_of_record
SF:/home/sautax/git/nethsm-pkcs11/pkcs11/src/backend/key.rs
FN:139,_RNCNvNtNtCsggOPaNFMSYu_13nethsm_pkcs117backend3key16parse_attributess3_0B7_
FN:346,_RNCNCNCNvNtNtCsggOPaNFMSYu_13nethsm_pkcs117backend3key24create_key_from_template000Bb_
FN:566,_RNCNCNCNvNtNtCsggOPaNFMSYu_13nethsm_pkcs117backend3key17fetch_certificate000Bb_
FN:108,_RNCNvNtNtCsggOPaNFMSYu_13nethsm_pkcs117backend3key16parse_attributess0_0B7_
FN:166,_RNCNvNtNtCsggOPaNFMSYu_13nethsm_pkcs117backend3key18upload_certificate0B7_
FN:557,_RNCNvNtNtCsggOPaNFMSYu_13nethsm_pkcs117backend3key17fetch_certificate0B7_
FN:136,_RNCNvNtNtCsggOPaNFMSYu_13nethsm_pkcs117backend3key16parse_attributess2_0B7_
FN:463,_RNCNvNtNtCsggOPaNFMSYu_13nethsm_pkcs117backend3key26generate_key_from_template0B7_
FN:91,_RNCNvNtNtCsggOPaNFMSYu_13nethsm_pkcs117backend3key16parse_attributess_0B7_
FN:75,_RNCNvNtNtCsggOPaNFMSYu_13nethsm_pkcs117backend3key16parse_attributes0B7_
FN:142,_RNCNvNtNtCsggOPaNFMSYu_13nethsm_pkcs117backend3key16parse_attributess4_0B7_
FN:215,_RNCNvNtNtCsggOPaNFMSYu_13nethsm_pkcs117backend3key24create_key_from_template0B7_
FN:367,_RNCNCNCNvNtNtCsggOPaNFMSYu_13nethsm_pkcs117backend3key24create_key_from_template0s_00Bb_
FN:476,_RNCNvNtNtCsggOPaNFMSYu_13nethsm_pkcs117backend3key26generate_key_from_templates_0B7_
FN:517,_RNCNCNCNvNtNtCsggOPaNFMSYu_13nethsm_pkcs117backend3key9fetch_key000Bb_
FN:508,_RNCNvNtNtCsggOPaNFMSYu_13nethsm_pkcs117backend3key9fetch_key0B7_
FN:479,_RNCNCNCNvNtNtCsggOPaNFMSYu_13nethsm_pkcs117backend3key26generate_key_from_templates_000Bb_
FN:591,_RNCNvNtNtCsggOPaNFMSYu_13nethsm_pkcs117backend3key30extract_key_id_location_header0B7_
FN:111,_RNCNvNtNtCsggOPaNFMSYu_13nethsm_pkcs117backend3key16parse_attributess1_0B7_
FN:487,_RNCNCNCNCNvNtNtCsggOPaNFMSYu_13nethsm_pkcs117backend3key26generate_key_from_templates_0000Bd_
FN:196,_RNCNCNCNvNtNtCsggOPaNFMSYu_13nethsm_pkcs117backend3key18upload_certificate000Bb_
FN:29,_RNvXNtNtCsggOPaNFMSYu_13nethsm_pkcs117backend3keyNtB2_16ParsedAttributesNtNtCskl7yHyHAUN_4core3fmt5Debug3fmt
FN:211,_RNvNtNtCsggOPaNFMSYu_13nethsm_pkcs117backend3key24create_key_from_template
FN:587,_RNvNtNtCsggOPaNFMSYu_13nethsm_pkcs117backend3key30extract_key_id_location_header
FN:416,_RNvNtNtCsggOPaNFMSYu_13nethsm_pkcs117backend3key8key_size
FN:552,_RNvNtNtCsggOPaNFMSYu_13nethsm_pkcs117backend3key17fetch_certificate
FN:449,_RNvNtNtCsggOPaNFMSYu_13nethsm_pkcs117backend3key26generate_key_from_template
FN:503,_RNvNtNtCsggOPaNFMSYu_13nethsm_pkcs117backend3key9fetch_key
FN:404,_RNvNtNtCsggOPaNFMSYu_13nethsm_pkcs117backend3key16key_type_to_asn1
FN:162,_RNvNtNtCsggOPaNFMSYu_13nethsm_pkcs117backend3key18upload_certificate
FN:429,_RNvNtNtCsggOPaNFMSYu_13nethsm_pkcs117backend3key20key_type_from_params
FN:29,_RNvXs_NtNtCsggOPaNFMSYu_13nethsm_pkcs117backend3keyNtB4_16ParsedAttributesNtNtCskl7yHyHAUN_4core7default7Default7defaultB8_
FN:47,_RNvNtNtCsggOPaNFMSYu_13nethsm_pkcs117backend3key16parse_attributes
FN:162,_RNvNtNtCsjTLMFSz4sfV_13nethsm_pkcs117backend3key18upload_certificate
FN:552,_RNvNtNtCsjTLMFSz4sfV_13nethsm_pkcs117backend3key17fetch_certificate
FN:449,_RNvNtNtCsjTLMFSz4sfV_13nethsm_pkcs117backend3key26generate_key_from_template
FN:503,_RNvNtNtCsjTLMFSz4sfV_13nethsm_pkcs117backend3key9fetch_key
FN:29,_RNvXs_NtNtCsjTLMFSz4sfV_13nethsm_pkcs117backend3keyNtB4_16ParsedAttributesNtNtCskl7yHyHAUN_4core7default7Default7defaultB8_
FN:587,_RNvNtNtCsjTLMFSz4sfV_13nethsm_pkcs117backend3key30extract_key_id_location_header
FN:416,_RNvNtNtCsjTLMFSz4sfV_13nethsm_pkcs117backend3key8key_size
FN:429,_RNvNtNtCsjTLMFSz4sfV_13nethsm_pkcs117backend3key20key_type_from_params
FN:47,_RNvNtNtCsjTLMFSz4sfV_13nethsm_pkcs117backend3key16parse_attributes
FN:211,_RNvNtNtCsjTLMFSz4sfV_13nethsm_pkcs117backend3key24create_key_from_template
FN:404,_RNvNtNtCsjTLMFSz4sfV_13nethsm_pkcs117backend3key16key_type_to_asn1
FN:463,_RNCNvNtNtCsjTLMFSz4sfV_13nethsm_pkcs117backend3key26generate_key_from_template0B7_
FN:91,_RNCNvNtNtCsjTLMFSz4sfV_13nethsm_pkcs117backend3key16parse_attributess_0B7_
FN:136,_RNCNvNtNtCsjTLMFSz4sfV_13nethsm_pkcs117backend3key16parse_attributess2_0B7_
FN:196,_RNCNCNCNvNtNtCsjTLMFSz4sfV_13nethsm_pkcs117backend3key18upload_certificate000Bb_
FN:508,_RNCNvNtNtCsjTLMFSz4sfV_13nethsm_pkcs117backend3key9fetch_key0B7_
FN:75,_RNCNvNtNtCsjTLMFSz4sfV_13nethsm_pkcs117backend3key16parse_attributes0B7_
FN:142,_RNCNvNtNtCsjTLMFSz4sfV_13nethsm_pkcs117backend3key16parse_attributess4_0B7_
FN:479,_RNCNCNCNvNtNtCsjTLMFSz4sfV_13nethsm_pkcs117backend3key26generate_key_from_templates_000Bb_
FN:346,_RNCNCNCNvNtNtCsjTLMFSz4sfV_13nethsm_pkcs117backend3key24create_key_from_template000Bb_
FN:108,_RNCNvNtNtCsjTLMFSz4sfV_13nethsm_pkcs117backend3key16parse_attributess0_0B7_
FN:487,_RNCNCNCNCNvNtNtCsjTLMFSz4sfV_13nethsm_pkcs117backend3key26generate_key_from_templates_0000Bd_
FN:517,_RNCNCNCNvNtNtCsjTLMFSz4sfV_13nethsm_pkcs117backend3key9fetch_key000Bb_
FN:476,_RNCNvNtNtCsjTLMFSz4sfV_13nethsm_pkcs117backend3key26generate_key_from_templates_0B7_
FN:591,_RNCNvNtNtCsjTLMFSz4sfV_13nethsm_pkcs117backend3key30extract_key_id_location_header0B7_
FN:215,_RNCNvNtNtCsjTLMFSz4sfV_13nethsm_pkcs117backend3key24create_key_from_template0B7_
FN:111,_RNCNvNtNtCsjTLMFSz4sfV_13nethsm_pkcs117backend3key16parse_attributess1_0B7_
FN:166,_RNCNvNtNtCsjTLMFSz4sfV_13nethsm_pkcs117backend3key18upload_certificate0B7_
FN:557,_RNCNvNtNtCsjTLMFSz4sfV_13nethsm_pkcs117backend3key17fetch_certificate0B7_
FN:367,_RNCNCNCNvNtNtCsjTLMFSz4sfV_13nethsm_pkcs117backend3key24create_key_from_template0s_00Bb_
FN:139,_RNCNvNtNtCsjTLMFSz4sfV_13nethsm_pkcs117backend3key16parse_attributess3_0B7_
FN:566,_RNCNCNCNvNtNtCsjTLMFSz4sfV_13nethsm_pkcs117backend3key17fetch_certificate000Bb_
FN:29,_RNvXNtNtCsjTLMFSz4sfV_13nethsm_pkcs117backend3keyNtB2_16ParsedAttributesNtNtCskl7yHyHAUN_4core3fmt5Debug3fmt
FNDA:0,_RNCNvNtNtCsggOPaNFMSYu_13nethsm_pkcs117backend3key16parse_attributess3_0B7_
FNDA:2,_RNCNCNCNvNtNtCsggOPaNFMSYu_13nethsm_pkcs117backend3key24create_key_from_template000Bb_
FNDA:0,_RNCNCNCNvNtNtCsggOPaNFMSYu_13nethsm_pkcs117backend3key17fetch_certificate000Bb_
FNDA:8,_RNCNvNtNtCsggOPaNFMSYu_13nethsm_pkcs117backend3key16parse_attributess0_0B7_
FNDA:0,_RNCNvNtNtCsggOPaNFMSYu_13nethsm_pkcs117backend3key18upload_certificate0B7_
FNDA:0,_RNCNvNtNtCsggOPaNFMSYu_13nethsm_pkcs117backend3key17fetch_certificate0B7_
FNDA:1,_RNCNvNtNtCsggOPaNFMSYu_13nethsm_pkcs117backend3key16parse_attributess2_0B7_
FNDA:6,_RNCNvNtNtCsggOPaNFMSYu_13nethsm_pkcs117backend3key26generate_key_from_template0B7_
FNDA:3,_RNCNvNtNtCsggOPaNFMSYu_13nethsm_pkcs117backend3key16parse_attributess_0B7_
FNDA:131,_RNCNvNtNtCsggOPaNFMSYu_13nethsm_pkcs117backend3key16parse_attributes0B7_
FNDA:0,_RNCNvNtNtCsggOPaNFMSYu_13nethsm_pkcs117backend3key16parse_attributess4_0B7_
FNDA:4,_RNCNvNtNtCsggOPaNFMSYu_13nethsm_pkcs117backend3key24create_key_from_template0B7_
FNDA:2,_RNCNCNCNvNtNtCsggOPaNFMSYu_13nethsm_pkcs117backend3key24create_key_from_template0s_00Bb_
FNDA:7,_RNCNvNtNtCsggOPaNFMSYu_13nethsm_pkcs117backend3key26generate_key_from_templates_0B7_
FNDA:51,_RNCNCNCNvNtNtCsggOPaNFMSYu_13nethsm_pkcs117backend3key9fetch_key000Bb_
FNDA:51,_RNCNvNtNtCsggOPaNFMSYu_13nethsm_pkcs117backend3key9fetch_key0B7_
FNDA:7,_RNCNCNCNvNtNtCsggOPaNFMSYu_13nethsm_pkcs117backend3key26generate_key_from_templates_000Bb_
FNDA:0,_RNCNvNtNtCsggOPaNFMSYu_13nethsm_pkcs117backend3key30extract_key_id_location_header0B7_
FNDA:4,_RNCNvNtNtCsggOPaNFMSYu_13nethsm_pkcs117backend3key16parse_attributess1_0B7_
FNDA:2,_RNCNCNCNCNvNtNtCsggOPaNFMSYu_13nethsm_pkcs117backend3key26generate_key_from_templates_0000Bd_
FNDA:0,_RNCNCNCNvNtNtCsggOPaNFMSYu_13nethsm_pkcs117backend3key18upload_certificate000Bb_
FNDA:0,_RNvXNtNtCsggOPaNFMSYu_13nethsm_pkcs117backend3keyNtB2_16ParsedAttributesNtNtCskl7yHyHAUN_4core3fmt5Debug3fmt
FNDA:4,_RNvNtNtCsggOPaNFMSYu_13nethsm_pkcs117backend3key24create_key_from_template
FNDA:9,_RNvNtNtCsggOPaNFMSYu_13nethsm_pkcs117backend3key30extract_key_id_location_header
FNDA:33,_RNvNtNtCsggOPaNFMSYu_13nethsm_pkcs117backend3key8key_size
FNDA:0,_RNvNtNtCsggOPaNFMSYu_13nethsm_pkcs117backend3key17fetch_certificate
FNDA:7,_RNvNtNtCsggOPaNFMSYu_13nethsm_pkcs117backend3key26generate_key_from_template
FNDA:51,_RNvNtNtCsggOPaNFMSYu_13nethsm_pkcs117backend3key9fetch_key
FNDA:30,_RNvNtNtCsggOPaNFMSYu_13nethsm_pkcs117backend3key16key_type_to_asn1
FNDA:0,_RNvNtNtCsggOPaNFMSYu_13nethsm_pkcs117backend3key18upload_certificate
FNDA:8,_RNvNtNtCsggOPaNFMSYu_13nethsm_pkcs117backend3key20key_type_from_params
FNDA:17,_RNvXs_NtNtCsggOPaNFMSYu_13nethsm_pkcs117backend3keyNtB4_16ParsedAttributesNtNtCskl7yHyHAUN_4core7default7Default7defaultB8_
FNDA:17,_RNvNtNtCsggOPaNFMSYu_13nethsm_pkcs117backend3key16parse_attributes
FNDA:0,_RNvNtNtCsjTLMFSz4sfV_13nethsm_pkcs117backend3key18upload_certificate
FNDA:0,_RNvNtNtCsjTLMFSz4sfV_13nethsm_pkcs117backend3key17fetch_certificate
FNDA:0,_RNvNtNtCsjTLMFSz4sfV_13nethsm_pkcs117backend3key26generate_key_from_template
FNDA:0,_RNvNtNtCsjTLMFSz4sfV_13nethsm_pkcs117backend3key9fetch_key
FNDA:0,_RNvXs_NtNtCsjTLMFSz4sfV_13nethsm_pkcs117backend3keyNtB4_16ParsedAttributesNtNtCskl7yHyHAUN_4core7default7Default7defaultB8_
FNDA:0,_RNvNtNtCsjTLMFSz4sfV_13nethsm_pkcs117backend3key30extract_key_id_location_header
FNDA:0,_RNvNtNtCsjTLMFSz4sfV_13nethsm_pkcs117backend3key8key_size
FNDA:0,_RNvNtNtCsjTLMFSz4sfV_13nethsm_pkcs117backend3key20key_type_from_params
FNDA:0,_RNvNtNtCsjTLMFSz4sfV_13nethsm_pkcs117backend3key16parse_attributes
FNDA:0,_RNvNtNtCsjTLMFSz4sfV_13nethsm_pkcs117backend3key24create_key_from_template
FNDA:0,_RNvNtNtCsjTLMFSz4sfV_13nethsm_pkcs117backend3key16key_type_to_asn1
FNDA:0,_RNCNvNtNtCsjTLMFSz4sfV_13nethsm_pkcs117backend3key26generate_key_from_template0B7_
FNDA:0,_RNCNvNtNtCsjTLMFSz4sfV_13nethsm_pkcs117backend3key16parse_attributess_0B7_
FNDA:0,_RNCNvNtNtCsjTLMFSz4sfV_13nethsm_pkcs117backend3key16parse_attributess2_0B7_
FNDA:0,_RNCNCNCNvNtNtCsjTLMFSz4sfV_13nethsm_pkcs117backend3key18upload_certificate000Bb_
FNDA:0,_RNCNvNtNtCsjTLMFSz4sfV_13nethsm_pkcs117backend3key9fetch_key0B7_
FNDA:0,_RNCNvNtNtCsjTLMFSz4sfV_13nethsm_pkcs117backend3key16parse_attributes0B7_
FNDA:0,_RNCNvNtNtCsjTLMFSz4sfV_13nethsm_pkcs117backend3key16parse_attributess4_0B7_
FNDA:0,_RNCNCNCNvNtNtCsjTLMFSz4sfV_13nethsm_pkcs117backend3key26generate_key_from_templates_000Bb_
FNDA:0,_RNCNCNCNvNtNtCsjTLMFSz4sfV_13nethsm_pkcs117backend3key24create_key_from_template000Bb_
FNDA:0,_RNCNvNtNtCsjTLMFSz4sfV_13nethsm_pkcs117backend3key16parse_attributess0_0B7_
FNDA:0,_RNCNCNCNCNvNtNtCsjTLMFSz4sfV_13nethsm_pkcs117backend3key26generate_key_from_templates_0000Bd_
FNDA:0,_RNCNCNCNvNtNtCsjTLMFSz4sfV_13nethsm_pkcs117backend3key9fetch_key000Bb_
FNDA:0,_RNCNvNtNtCsjTLMFSz4sfV_13nethsm_pkcs117backend3key26generate_key_from_templates_0B7_
FNDA:0,_RNCNvNtNtCsjTLMFSz4sfV_13nethsm_pkcs117backend3key30extract_key_id_location_header0B7_
FNDA:0,_RNCNvNtNtCsjTLMFSz4sfV_13nethsm_pkcs117backend3key24create_key_from_template0B7_
FNDA:0,_RNCNvNtNtCsjTLMFSz4sfV_13nethsm_pkcs117backend3key16parse_attributess1_0B7_
FNDA:0,_RNCNvNtNtCsjTLMFSz4sfV_13nethsm_pkcs117backend3key18upload_certificate0B7_
FNDA:0,_RNCNvNtNtCsjTLMFSz4sfV_13nethsm_pkcs117backend3key17fetch_certificate0B7_
FNDA:0,_RNCNCNCNvNtNtCsjTLMFSz4sfV_13nethsm_pkcs117backend3key24create_key_from_template0s_00Bb_
FNDA:0,_RNCNvNtNtCsjTLMFSz4sfV_13nethsm_pkcs117backend3key16parse_attributess3_0B7_
FNDA:0,_RNCNCNCNvNtNtCsjTLMFSz4sfV_13nethsm_pkcs117backend3key17fetch_certificate000Bb_
FNDA:0,_RNvXNtNtCsjTLMFSz4sfV_13nethsm_pkcs117backend3keyNtB2_16ParsedAttributesNtNtCskl7yHyHAUN_4core3fmt5Debug3fmt
FNF:33
FNH:23
DA:29,17
DA:47,17
DA:48,17
DA:50,138
DA:51,138
DA:52,138
DA:53,138
DA:55,138
DA:56,15
DA:57,15
DA:58,15
DA:60,0
DA:61,0
DA:64,15
DA:67,0
DA:70,15
DA:71,15
DA:72,15
DA:73,15
DA:75,131
DA:76,15
DA:77,15
DA:78,0
DA:80,15
DA:81,0
DA:82,0
DA:83,0
DA:84,15
DA:85,15
DA:86,0
DA:89,3
DA:90,3
DA:91,3
DA:92,3
DA:93,3
DA:94,3
DA:95,3
DA:96,0
DA:97,3
DA:100,15
DA:101,15
DA:102,15
DA:103,0
DA:105,15
DA:107,8
DA:108,8
DA:109,8
DA:110,4
DA:111,4
DA:112,4
DA:115,7
DA:116,7
DA:117,7
DA:118,7
DA:119,0
DA:122,3
DA:123,3
DA:124,3
DA:125,3
DA:126,0
DA:129,3
DA:130,3
DA:131,3
DA:132,3
DA:133,0
DA:135,1
DA:136,1
DA:137,1
DA:138,0
DA:139,0
DA:140,0
DA:141,0
DA:142,0
DA:143,0
DA:144,1
DA:145,1
DA:146,1
DA:148,1
DA:149,1
DA:150,1
DA:154,62
DA:159,17
DA:160,17
DA:162,0
DA:163,0
DA:164,0
DA:165,0
DA:166,0
DA:167,0
DA:168,0
DA:169,0
DA:171,0
DA:173,0
DA:174,0
DA:176,0
DA:177,0
DA:182,0
DA:183,0
DA:184,0
DA:185,0
DA:186,0
DA:188,0
DA:190,0
DA:192,0
DA:193,0
DA:194,0
DA:195,0
DA:196,0
DA:197,0
DA:198,0
DA:199,0
DA:200,0
DA:201,0
DA:202,0
DA:203,0
DA:204,0
DA:205,0
DA:206,0
DA:208,0
DA:209,0
DA:211,4
DA:212,4
DA:213,4
DA:214,4
DA:215,4
DA:217,0
DA:218,0
DA:220,4
DA:221,4
DA:222,4
DA:223,0
DA:224,4
DA:225,4
DA:227,0
DA:230,4
DA:231,0
DA:232,4
DA:234,4
DA:235,4
DA:236,4
DA:239,0
DA:241,0
DA:242,0
DA:243,0
DA:245,0
DA:246,0
DA:248,0
DA:249,0
DA:251,0
DA:252,0
DA:253,0
DA:254,0
DA:257,0
DA:258,0
DA:259,0
DA:260,0
DA:261,0
DA:262,0
DA:263,0
DA:266,3
DA:267,3
DA:268,3
DA:269,3
DA:271,3
DA:273,3
DA:274,3
DA:277,3
DA:278,0
DA:279,0
DA:281,3
DA:282,3
DA:283,3
DA:284,3
DA:285,3
DA:286,3
DA:287,3
DA:288,3
DA:289,3
DA:290,3
DA:293,1
DA:294,1
DA:295,1
DA:296,1
DA:297,1
DA:298,1
DA:299,1
DA:300,1
DA:301,1
DA:302,1
DA:303,1
DA:304,1
DA:305,1
DA:306,1
DA:307,1
DA:310,0
DA:313,4
DA:314,4
DA:315,4
DA:317,8
DA:318,4
DA:319,1
DA:320,1
DA:321,1
DA:322,3
DA:323,4
DA:324,1
DA:325,1
DA:326,1
DA:327,3
DA:328,4
DA:329,1
DA:330,1
DA:331,1
DA:332,3
DA:335,4
DA:336,4
DA:337,4
DA:338,4
DA:339,4
DA:340,4
DA:342,4
DA:343,2
DA:344,2
DA:345,2
DA:346,2
DA:347,2
DA:348,2
DA:349,2
DA:350,2
DA:351,2
DA:352,2
DA:353,2
DA:354,2
DA:355,2
DA:356,2
DA:357,2
DA:358,2
DA:360,0
DA:362,2
DA:365,2
DA:366,2
DA:367,2
DA:368,2
DA:369,2
DA:370,2
DA:371,2
DA:372,2
DA:373,2
DA:374,2
DA:375,2
DA:376,2
DA:377,2
DA:378,2
DA:380,2
DA:381,2
DA:382,2
DA:383,2
DA:385,0
DA:387,0
DA:389,4
DA:390,4
DA:404,30
DA:405,30
DA:406,5
DA:407,11
DA:408,3
DA:409,5
DA:410,6
DA:411,0
DA:413,30
DA:416,33
DA:417,33
DA:418,5
DA:419,13
DA:420,3
DA:421,5
DA:422,7
DA:423,0
DA:426,33
DA:427,33
DA:429,8
DA:430,8
DA:431,8
DA:432,8
DA:433,8
DA:434,8
DA:435,2
DA:436,6
DA:437,1
DA:438,5
DA:439,3
DA:440,2
DA:441,1
DA:442,1
DA:443,1
DA:445,0
DA:447,8
DA:449,7
DA:450,7
DA:451,7
DA:452,7
DA:453,7
DA:454,7
DA:455,7
DA:456,7
DA:457,7
DA:459,7
DA:460,7
DA:461,7
DA:462,7
DA:463,7
DA:464,7
DA:465,7
DA:467,7
DA:469,7
DA:470,6
DA:472,5
DA:473,1
DA:474,1
DA:476,7
DA:477,7
DA:478,7
DA:479,7
DA:480,7
DA:481,7
DA:482,7
DA:483,7
DA:484,7
DA:485,7
DA:486,7
DA:487,7
DA:488,7
DA:489,7
DA:490,8
DA:491,7
DA:492,7
DA:493,7
DA:494,8
DA:496,7
DA:498,13
DA:499,7
DA:500,7
DA:503,51
DA:504,51
DA:505,51
DA:506,51
DA:507,51
DA:508,51
DA:509,51
DA:510,0
DA:511,0
DA:512,0
DA:513,51
DA:515,51
DA:516,51
DA:517,132
DA:518,51
DA:519,51
DA:520,132
DA:522,51
DA:523,0
DA:524,0
DA:526,0
DA:532,0
DA:533,0
DA:534,0
DA:538,51
DA:540,51
DA:542,51
DA:544,144
DA:545,93
DA:546,93
DA:547,93
DA:549,51
DA:550,51
DA:552,0
DA:553,0
DA:554,0
DA:555,0
DA:556,0
DA:557,0
DA:558,0
DA:559,0
DA:560,0
DA:561,0
DA:562,0
DA:564,0
DA:565,0
DA:566,0
DA:567,0
DA:568,0
DA:569,0
DA:570,0
DA:571,0
DA:572,0
DA:573,0
DA:574,0
DA:575,0
DA:576,0
DA:578,0
DA:580,0
DA:581,0
DA:582,0
DA:583,0
DA:587,9
DA:588,9
DA:589,9
DA:590,9
DA:591,9
DA:592,9
DA:593,9
DA:594,9
DA:595,9
DA:596,9
DA:597,9
DA:598,9
DA:599,9
DA:600,9
DA:601,9
BRF:0
BRH:0
LF:445
LH:309
end_of_record
SF:/home/sautax/git/nethsm-pkcs11/pkcs11/src/backend/login.rs
FN:160,_RNvMs1_NtNtCsggOPaNFMSYu_13nethsm_pkcs117backend5loginNtB5_8LoginCtx5guest
FN:35,_RNvXNtNtCsggOPaNFMSYu_13nethsm_pkcs117backend5loginyINtNtCskl7yHyHAUN_4core7convert4FromNtB2_10LoginErrorE4from
FN:63,_RNvMs1_NtNtCsggOPaNFMSYu_13nethsm_pkcs117backend5loginNtB5_8LoginCtx3new
FN:151,_RNvMs1_NtNtCsggOPaNFMSYu_13nethsm_pkcs117backend5loginNtB5_8LoginCtx13administrator
FN:182,_RNvMs1_NtNtCsggOPaNFMSYu_13nethsm_pkcs117backend5loginNtB5_8LoginCtx6logout
FN:252,_RNvMs1_NtNtCsggOPaNFMSYu_13nethsm_pkcs117backend5loginNtB5_8LoginCtx10change_pin
FN:293,_RNvXs7_NtNtCsggOPaNFMSYu_13nethsm_pkcs117backend5loginNtB5_8UserModeNtNtCskl7yHyHAUN_4core3fmt5Debug3fmt
FN:156,_RNvMs1_NtNtCsggOPaNFMSYu_13nethsm_pkcs117backend5loginNtB5_8LoginCtx25operator_or_administrator
FN:17,_RNvXs3_NtNtCsggOPaNFMSYu_13nethsm_pkcs117backend5loginNtB5_8LoginCtxNtNtCskl7yHyHAUN_4core5clone5Clone5cloneB9_
FN:52,_RNvXs0_NtNtCsggOPaNFMSYu_13nethsm_pkcs117backend5loginNtB5_10LoginErrorNtNtCskl7yHyHAUN_4core3fmt7Display3fmt
FN:146,_RNvMs1_NtNtCsggOPaNFMSYu_13nethsm_pkcs117backend5loginNtB5_8LoginCtx8operator
FN:301,_RNvXsb_NtNtCsggOPaNFMSYu_13nethsm_pkcs117backend5loginNtB5_10UserStatusNtNtCskl7yHyHAUN_4core3fmt5Debug3fmt
FN:249,_RNvMs1_NtNtCsggOPaNFMSYu_13nethsm_pkcs117backend5loginNtB5_8LoginCtx8ck_state
FN:335,_RNvNtNtCsggOPaNFMSYu_13nethsm_pkcs117backend5login19get_user_api_config
FN:164,_RNvMs1_NtNtCsggOPaNFMSYu_13nethsm_pkcs117backend5loginNtB5_8LoginCtx12can_run_mode
FN:94,_RNvMs1_NtNtCsggOPaNFMSYu_13nethsm_pkcs117backend5loginNtB5_8LoginCtx5login
FN:186,_RNvMs1_NtNtCsggOPaNFMSYu_13nethsm_pkcs117backend5loginNtB5_8LoginCtx20get_config_user_mode
FN:352,_RNvNtNtCsggOPaNFMSYu_13nethsm_pkcs117backend5login13user_is_valid
FN:141,_RNvMs1_NtNtCsggOPaNFMSYu_13nethsm_pkcs117backend5loginNtB5_8LoginCtx13next_instance
FN:308,_RNvNtNtCsggOPaNFMSYu_13nethsm_pkcs117backend5login23get_current_user_status
FN:26,_RNvXs4_NtNtCsggOPaNFMSYu_13nethsm_pkcs117backend5loginNtB5_10LoginErrorNtNtCskl7yHyHAUN_4core3fmt5Debug3fmt
FN:301,_RNvXsd_NtNtCsggOPaNFMSYu_13nethsm_pkcs117backend5loginNtB5_10UserStatusNtNtCskl7yHyHAUN_4core3cmp9PartialEq2eqB9_
FN:46,_RNvXs_NtNtCsggOPaNFMSYu_13nethsm_pkcs117backend5loginNtB6_5ErrorINtNtCskl7yHyHAUN_4core7convert4FromNtB4_10LoginErrorE4from
FN:206,_RNCINvMs1_NtNtCsggOPaNFMSYu_13nethsm_pkcs117backend5loginNtB8_8LoginCtx4try_NCNCNvNtBa_3key9fetch_key00NtNtNtCsk2ORzXQUL6f_13nethsm_sdk_rs4apis11default_api17KeysKeyIdGetErrorINtB1H_15ResponseContentNtNtNtB1J_6models10public_key9PublicKeyENCNCB1e_00E0Bc_
FN:206,_RNCINvMs1_NtNtCsggOPaNFMSYu_13nethsm_pkcs117backend5loginNtB8_8LoginCtx4try_NCNCNvNtNtBc_3api10generation16C_GenerateRandoms_00NtNtNtCsk2ORzXQUL6f_13nethsm_sdk_rs4apis11default_api15RandomPostErrorINtB25_15ResponseContentNtNtNtB27_6models11random_data10RandomDataENCNCB1e_00E0Bc_
FN:274,_RNCNCNvMs1_NtNtCsggOPaNFMSYu_13nethsm_pkcs117backend5loginNtB9_8LoginCtx10change_pin00Bd_
FN:339,_RNCNvNtNtCsggOPaNFMSYu_13nethsm_pkcs117backend5login19get_user_api_config0B7_
FN:196,_RINvMs1_NtNtCsggOPaNFMSYu_13nethsm_pkcs117backend5loginNtB6_8LoginCtx4try_NCNCNvMs_NtB8_7sessionNtB1j_7Session14fetch_all_keys0s_0NtNtNtCsk2ORzXQUL6f_13nethsm_sdk_rs4apis11default_api12KeysGetErrorINtB28_15ResponseContentINtNtCsf2W9KFidpdm_5alloc3vec3VecNtNtNtB2a_6models8key_item7KeyItemEENCNCB1c_s_00EBa_
FN:196,_RINvMs1_NtNtCsggOPaNFMSYu_13nethsm_pkcs117backend5loginNtB6_8LoginCtx4try_NCNCNvNtB8_3key18upload_certificate00NtNtNtCsk2ORzXQUL6f_13nethsm_sdk_rs4apis11default_api21KeysKeyIdCertPutErrorINtB1P_15ResponseContentuENCNCB1c_00EBa_
FN:206,_RNCINvMs1_NtNtCsggOPaNFMSYu_13nethsm_pkcs117backend5loginNtB8_8LoginCtx4try_NCNCNvMs_NtBa_7sessionNtB1l_7Session14fetch_all_keys0s_0NtNtNtCsk2ORzXQUL6f_13nethsm_sdk_rs4apis11default_api12KeysGetErrorINtB2a_15ResponseContentINtNtCsf2W9KFidpdm_5alloc3vec3VecNtNtNtB2c_6models8key_item7KeyItemEENCNCB1e_s_00E0Bc_
FN:206,_RNCINvMs1_NtNtCsggOPaNFMSYu_13nethsm_pkcs117backend5loginNtB8_8LoginCtx4try_NCNCNvNtBa_3key24create_key_from_template00NtNtNtCsk2ORzXQUL6f_13nethsm_sdk_rs4apis11default_api17KeysKeyIdPutErrorINtB1X_15ResponseContentuENCNCB1e_00E0Bc_
FN:206,_RNCINvMs1_NtNtCsggOPaNFMSYu_13nethsm_pkcs117backend5loginNtB8_8LoginCtx4try_NCNCNvNtBa_3key24create_key_from_template0s_0NtNtNtCsk2ORzXQUL6f_13nethsm_sdk_rs4apis11default_api13KeysPostErrorINtB1Z_15ResponseContentuENCNCB1e_s_00E0Bc_
FN:206,_RNCINvMs1_NtNtCsggOPaNFMSYu_13nethsm_pkcs117backend5loginNtB8_8LoginCtx4try_NCNvNtNtBc_3api5token14C_GetTokenInfo0NtNtNtCsk2ORzXQUL6f_13nethsm_sdk_rs4apis11default_api12InfoGetErrorINtB1S_15ResponseContentNtNtNtB1U_6models9info_data8InfoDataENCNCB1e_00E0Bc_
FN:206,_RNCINvMs1_NtNtCsggOPaNFMSYu_13nethsm_pkcs117backend5loginNtB8_8LoginCtx4try_NCNvNtNtBc_3api5token14C_GetTokenInfos_0NtNtNtCsk2ORzXQUL6f_13nethsm_sdk_rs4apis11default_api18SystemInfoGetErrorINtB1U_15ResponseContentNtNtNtB1W_6models11system_info10SystemInfoENCNCB1e_s_00E0Bc_
FN:359,_RNCNCNvNtNtCsggOPaNFMSYu_13nethsm_pkcs117backend5login13user_is_valid00B9_
FN:196,_RINvMs1_NtNtCsggOPaNFMSYu_13nethsm_pkcs117backend5loginNtB6_8LoginCtx4try_NCNCNvNtB8_3key17fetch_certificate00NtNtNtCsk2ORzXQUL6f_13nethsm_sdk_rs4apis11default_api21KeysKeyIdCertGetErrorINtB1O_15ResponseContentNtNtCsf2W9KFidpdm_5alloc6string6StringENCNCB1c_00EBa_
FN:148,_RNCNvMs1_NtNtCsggOPaNFMSYu_13nethsm_pkcs117backend5loginNtB7_8LoginCtx8operator0Bb_
FN:196,_RINvMs1_NtNtCsggOPaNFMSYu_13nethsm_pkcs117backend5loginNtB6_8LoginCtx4try_NCNCNvMNtB8_7decryptNtB1h_10DecryptCtx13decrypt_finals_00NtNtNtCsk2ORzXQUL6f_13nethsm_sdk_rs4apis11default_api25KeysKeyIdDecryptPostErrorINtB29_15ResponseContentNtNtNtB2b_6models12decrypt_data11DecryptDataENCNCB1c_00EBa_
FN:196,_RINvMs1_NtNtCsggOPaNFMSYu_13nethsm_pkcs117backend5loginNtB6_8LoginCtx4try_NCNvNtNtBa_3api5token13C_GetSlotInfos_0NtNtNtCsk2ORzXQUL6f_13nethsm_sdk_rs4apis11default_api19HealthStateGetErrorINtB1R_15ResponseContentNtNtNtB1T_6models17health_state_data15HealthStateDataENCNCB1c_s_00EBa_
FN:196,_RINvMs1_NtNtCsggOPaNFMSYu_13nethsm_pkcs117backend5loginNtB6_8LoginCtx4try_NCNvNtNtBa_3api5token14C_GetTokenInfos_0NtNtNtCsk2ORzXQUL6f_13nethsm_sdk_rs4apis11default_api18SystemInfoGetErrorINtB1S_15ResponseContentNtNtNtB1U_6models11system_info10SystemInfoENCNCB1c_s_00EBa_
FN:153,_RNCNvMs1_NtNtCsggOPaNFMSYu_13nethsm_pkcs117backend5loginNtB7_8LoginCtx13administrator0Bb_
FN:206,_RNCINvMs1_NtNtCsggOPaNFMSYu_13nethsm_pkcs117backend5loginNtB8_8LoginCtx4try_NCNCNvNtBa_3key17fetch_certificate00NtNtNtCsk2ORzXQUL6f_13nethsm_sdk_rs4apis11default_api21KeysKeyIdCertGetErrorINtB1Q_15ResponseContentNtNtCsf2W9KFidpdm_5alloc6string6StringENCNCB1e_00E0Bc_
FN:206,_RNCINvMs1_NtNtCsggOPaNFMSYu_13nethsm_pkcs117backend5loginNtB8_8LoginCtx4try_NCNCNvNtBa_7encrypt12encrypt_datas_00NtNtNtCsk2ORzXQUL6f_13nethsm_sdk_rs4apis11default_api25KeysKeyIdEncryptPostErrorINtB1R_15ResponseContentNtNtNtB1T_6models12encrypt_data11EncryptDataENCNCB1e_00E0Bc_
FN:196,_RINvMs1_NtNtCsggOPaNFMSYu_13nethsm_pkcs117backend5loginNtB6_8LoginCtx4try_NCNCNvNtB8_7encrypt12encrypt_datas_00NtNtNtCsk2ORzXQUL6f_13nethsm_sdk_rs4apis11default_api25KeysKeyIdEncryptPostErrorINtB1P_15ResponseContentNtNtNtB1R_6models12encrypt_data11EncryptDataENCNCB1c_00EBa_
FN:196,_RINvMs1_NtNtCsggOPaNFMSYu_13nethsm_pkcs117backend5loginNtB6_8LoginCtx4try_NCNCNvNtB8_3key24create_key_from_template00NtNtNtCsk2ORzXQUL6f_13nethsm_sdk_rs4apis11default_api17KeysKeyIdPutErrorINtB1V_15ResponseContentuENCNCB1c_00EBa_
FN:196,_RINvMs1_NtNtCsggOPaNFMSYu_13nethsm_pkcs117backend5loginNtB6_8LoginCtx4try_NCNCNvMNtB8_4signNtB1h_7SignCtx10sign_final00NtNtNtCsk2ORzXQUL6f_13nethsm_sdk_rs4apis11default_api22KeysKeyIdSignPostErrorINtB1X_15ResponseContentNtNtNtB1Z_6models9sign_data8SignDataENCNCB1c_00EBa_
FN:196,_RINvMs1_NtNtCsggOPaNFMSYu_13nethsm_pkcs117backend5loginNtB6_8LoginCtx4try_NCNCNvNtB8_3key9fetch_key00NtNtNtCsk2ORzXQUL6f_13nethsm_sdk_rs4apis11default_api17KeysKeyIdGetErrorINtB1F_15ResponseContentNtNtNtB1H_6models10public_key9PublicKeyENCNCB1c_00EBa_
FN:206,_RNCINvMs1_NtNtCsggOPaNFMSYu_13nethsm_pkcs117backend5loginNtB8_8LoginCtx4try_NCNCNvNtBa_3key18upload_certificate00NtNtNtCsk2ORzXQUL6f_13nethsm_sdk_rs4apis11default_api21KeysKeyIdCertPutErrorINtB1R_15ResponseContentuENCNCB1e_00E0Bc_
FN:196,_RINvMs1_NtNtCsggOPaNFMSYu_13nethsm_pkcs117backend5loginNtB6_8LoginCtx4try_NCNvNtNtBa_3api5token13C_GetSlotInfo0NtNtNtCsk2ORzXQUL6f_13nethsm_sdk_rs4apis11default_api12InfoGetErrorINtB1P_15ResponseContentNtNtNtB1R_6models9info_data8InfoDataENCNCB1c_00EBa_
FN:196,_RINvMs1_NtNtCsggOPaNFMSYu_13nethsm_pkcs117backend5loginNtB6_8LoginCtx4try_NCNvNtNtBa_3api5token14C_GetTokenInfo0NtNtNtCsk2ORzXQUL6f_13nethsm_sdk_rs4apis11default_api12InfoGetErrorINtB1Q_15ResponseContentNtNtNtB1S_6models9info_data8InfoDataENCNCB1c_00EBa_
FN:206,_RNCINvMs1_NtNtCsggOPaNFMSYu_13nethsm_pkcs117backend5loginNtB8_8LoginCtx4try_NCNCNvMNtBa_7decryptNtB1j_10DecryptCtx13decrypt_finals_00NtNtNtCsk2ORzXQUL6f_13nethsm_sdk_rs4apis11default_api25KeysKeyIdDecryptPostErrorINtB2b_15ResponseContentNtNtNtB2d_6models12decrypt_data11DecryptDataENCNCB1e_00E0Bc_
FN:311,_RNCNvNtNtCsggOPaNFMSYu_13nethsm_pkcs117backend5login23get_current_user_status0B7_
FN:196,_RINvMs1_NtNtCsggOPaNFMSYu_13nethsm_pkcs117backend5loginNtB6_8LoginCtx4try_NCNCNvMs_NtB8_7sessionNtB1j_7Session13delete_objects0_00NtNtNtCsk2ORzXQUL6f_13nethsm_sdk_rs4apis11default_api20KeysKeyIdDeleteErrorINtB28_15ResponseContentuENCNCB1c_00EBa_
FN:196,_RINvMs1_NtNtCsggOPaNFMSYu_13nethsm_pkcs117backend5loginNtB6_8LoginCtx4try_NCNCNvNtB8_3key26generate_key_from_templates_00NtNtNtCsk2ORzXQUL6f_13nethsm_sdk_rs4apis11default_api21KeysGeneratePostErrorINtB1Z_15ResponseContentuENCNCB1c_00EBa_
FN:206,_RNCINvMs1_NtNtCsggOPaNFMSYu_13nethsm_pkcs117backend5loginNtB8_8LoginCtx4try_NCNCNvMs_NtBa_7sessionNtB1l_7Session13delete_objects0_00NtNtNtCsk2ORzXQUL6f_13nethsm_sdk_rs4apis11default_api20KeysKeyIdDeleteErrorINtB2a_15ResponseContentuENCNCB1e_00E0Bc_
FN:206,_RNCINvMs1_NtNtCsggOPaNFMSYu_13nethsm_pkcs117backend5loginNtB8_8LoginCtx4try_NCNvB4_10change_pin0NtNtNtCsk2ORzXQUL6f_13nethsm_sdk_rs4apis11default_api30UsersUserIdPassphrasePostErrorINtB1A_15ResponseContentuENCNCB1e_00E0Bc_
FN:354,_RNCNvNtNtCsggOPaNFMSYu_13nethsm_pkcs117backend5login13user_is_valid0B7_
FN:196,_RINvMs1_NtNtCsggOPaNFMSYu_13nethsm_pkcs117backend5loginNtB6_8LoginCtx4try_NCNCNvMs_NtB8_7sessionNtB1j_7Session13delete_objects_00NtNtNtCsk2ORzXQUL6f_13nethsm_sdk_rs4apis11default_api24KeysKeyIdCertDeleteErrorINtB27_15ResponseContentuENCNCB1c_00EBa_
FN:157,_RNCNvMs1_NtNtCsggOPaNFMSYu_13nethsm_pkcs117backend5loginNtB7_8LoginCtx25operator_or_administrator0Bb_
FN:196,_RINvMs1_NtNtCsggOPaNFMSYu_13nethsm_pkcs117backend5loginNtB6_8LoginCtx4try_NCNvB2_10change_pin0NtNtNtCsk2ORzXQUL6f_13nethsm_sdk_rs4apis11default_api30UsersUserIdPassphrasePostErrorINtB1y_15ResponseContentuENCNCB1c_00EBa_
FN:206,_RNCINvMs1_NtNtCsggOPaNFMSYu_13nethsm_pkcs117backend5loginNtB8_8LoginCtx4try_NCNCNvMNtBa_4signNtB1j_7SignCtx10sign_final00NtNtNtCsk2ORzXQUL6f_13nethsm_sdk_rs4apis11default_api22KeysKeyIdSignPostErrorINtB1Z_15ResponseContentNtNtNtB21_6models9sign_data8SignDataENCNCB1e_00E0Bc_
FN:206,_RNCINvMs1_NtNtCsggOPaNFMSYu_13nethsm_pkcs117backend5loginNtB8_8LoginCtx4try_NCNvNtNtBc_3api5token13C_GetSlotInfo0NtNtNtCsk2ORzXQUL6f_13nethsm_sdk_rs4apis11default_api12InfoGetErrorINtB1R_15ResponseContentNtNtNtB1T_6models9info_data8InfoDataENCNCB1e_00E0Bc_
FN:95,_RNCNvMs1_NtNtCsggOPaNFMSYu_13nethsm_pkcs117backend5loginNtB7_8LoginCtx5login0Bb_
FN:206,_RNCINvMs1_NtNtCsggOPaNFMSYu_13nethsm_pkcs117backend5loginNtB8_8LoginCtx4try_NCNvNtNtBc_3api5token13C_GetSlotInfos_0NtNtNtCsk2ORzXQUL6f_13nethsm_sdk_rs4apis11default_api19HealthStateGetErrorINtB1T_15ResponseContentNtNtNtB1V_6models17health_state_data15HealthStateDataENCNCB1e_s_00E0Bc_
FN:196,_RINvMs1_NtNtCsggOPaNFMSYu_13nethsm_pkcs117backend5loginNtB6_8LoginCtx4try_NCNCNvNtNtBa_3api10generation16C_GenerateRandoms_00NtNtNtCsk2ORzXQUL6f_13nethsm_sdk_rs4apis11default_api15RandomPostErrorINtB23_15ResponseContentNtNtNtB25_6models11random_data10RandomDataENCNCB1c_00EBa_
FN:206,_RNCINvMs1_NtNtCsggOPaNFMSYu_13nethsm_pkcs117backend5loginNtB8_8LoginCtx4try_NCNCNvMs_NtBa_7sessionNtB1l_7Session13delete_objects_00NtNtNtCsk2ORzXQUL6f_13nethsm_sdk_rs4apis11default_api24KeysKeyIdCertDeleteErrorINtB29_15ResponseContentuENCNCB1e_00E0Bc_
FN:196,_RINvMs1_NtNtCsggOPaNFMSYu_13nethsm_pkcs117backend5loginNtB6_8LoginCtx4try_NCNCNvNtB8_3key24create_key_from_template0s_0NtNtNtCsk2ORzXQUL6f_13nethsm_sdk_rs4apis11default_api13KeysPostErrorINtB1X_15ResponseContentuENCNCB1c_s_00EBa_
FN:206,_RNCINvMs1_NtNtCsggOPaNFMSYu_13nethsm_pkcs117backend5loginNtB8_8LoginCtx4try_NCNCNvNtBa_3key26generate_key_from_templates_00NtNtNtCsk2ORzXQUL6f_13nethsm_sdk_rs4apis11default_api21KeysGeneratePostErrorINtB21_15ResponseContentuENCNCB1e_00E0Bc_
FN:301,_RNvXsa_NtNtCsggOPaNFMSYu_13nethsm_pkcs117backend5loginNtB5_10UserStatusNtNtCskl7yHyHAUN_4core5clone5Clone5cloneB9_
FN:26,_RNvXs5_NtNtCsggOPaNFMSYu_13nethsm_pkcs117backend5loginNtB5_10LoginErrorNtNtCskl7yHyHAUN_4core5clone5Clone5cloneB9_
FN:293,_RNvXs6_NtNtCsggOPaNFMSYu_13nethsm_pkcs117backend5loginNtB5_8UserModeNtNtCskl7yHyHAUN_4core5clone5Clone5cloneB9_
FN:293,_RNvXs9_NtNtCsggOPaNFMSYu_13nethsm_pkcs117backend5loginNtB5_8UserModeNtNtCskl7yHyHAUN_4core3cmp9PartialEq2eqB9_
FN:17,_RNvXs2_NtNtCsggOPaNFMSYu_13nethsm_pkcs117backend5loginNtB5_8LoginCtxNtNtCskl7yHyHAUN_4core3fmt5Debug3fmt
FN:369,_RNvNtNtNtCsjTLMFSz4sfV_13nethsm_pkcs117backend5login4tests_18test_user_is_valid
FN:196,_RINvMs1_NtNtCsjTLMFSz4sfV_13nethsm_pkcs117backend5loginNtB6_8LoginCtx4try_NCNvNtNtBa_3api5token14C_GetTokenInfos_0NtNtNtCsk2ORzXQUL6f_13nethsm_sdk_rs4apis11default_api18SystemInfoGetErrorINtB1S_15ResponseContentNtNtNtB1U_6models11system_info10SystemInfoENCNCB1c_s_00EBa_
FN:206,_RNCINvMs1_NtNtCsjTLMFSz4sfV_13nethsm_pkcs117backend5loginNtB8_8LoginCtx4try_NCNCNvNtBa_7encrypt12encrypt_datas_00NtNtNtCsk2ORzXQUL6f_13nethsm_sdk_rs4apis11default_api25KeysKeyIdEncryptPostErrorINtB1R_15ResponseContentNtNtNtB1T_6models12encrypt_data11EncryptDataENCNCB1e_00E0Bc_
FN:196,_RINvMs1_NtNtCsjTLMFSz4sfV_13nethsm_pkcs117backend5loginNtB6_8LoginCtx4try_NCNCNvMNtB8_7decryptNtB1h_10DecryptCtx13decrypt_finals_00NtNtNtCsk2ORzXQUL6f_13nethsm_sdk_rs4apis11default_api25KeysKeyIdDecryptPostErrorINtB29_15ResponseContentNtNtNtB2b_6models12decrypt_data11DecryptDataENCNCB1c_00EBa_
FN:196,_RINvMs1_NtNtCsjTLMFSz4sfV_13nethsm_pkcs117backend5loginNtB6_8LoginCtx4try_NCNCNvNtB8_3key18upload_certificate00NtNtNtCsk2ORzXQUL6f_13nethsm_sdk_rs4apis11default_api21KeysKeyIdCertPutErrorINtB1P_15ResponseContentuENCNCB1c_00EBa_
FN:196,_RINvMs1_NtNtCsjTLMFSz4sfV_13nethsm_pkcs117backend5loginNtB6_8LoginCtx4try_NCNvB2_10change_pin0NtNtNtCsk2ORzXQUL6f_13nethsm_sdk_rs4apis11default_api30UsersUserIdPassphrasePostErrorINtB1y_15ResponseContentuENCNCB1c_00EBa_
FN:206,_RNCINvMs1_NtNtCsjTLMFSz4sfV_13nethsm_pkcs117backend5loginNtB8_8LoginCtx4try_NCNCNvMs_NtBa_7sessionNtB1l_7Session14fetch_all_keys0s_0NtNtNtCsk2ORzXQUL6f_13nethsm_sdk_rs4apis11default_api12KeysGetErrorINtB2a_15ResponseContentINtNtCsf2W9KFidpdm_5alloc3vec3VecNtNtNtB2c_6models8key_item7KeyItemEENCNCB1e_s_00E0Bc_
FN:206,_RNCINvMs1_NtNtCsjTLMFSz4sfV_13nethsm_pkcs117backend5loginNtB8_8LoginCtx4try_NCNCNvNtBa_3key24create_key_from_template00NtNtNtCsk2ORzXQUL6f_13nethsm_sdk_rs4apis11default_api17KeysKeyIdPutErrorINtB1X_15ResponseContentuENCNCB1e_00E0Bc_
FN:206,_RNCINvMs1_NtNtCsjTLMFSz4sfV_13nethsm_pkcs117backend5loginNtB8_8LoginCtx4try_NCNCNvNtBa_3key24create_key_from_template0s_0NtNtNtCsk2ORzXQUL6f_13nethsm_sdk_rs4apis11default_api13KeysPostErrorINtB1Z_15ResponseContentuENCNCB1e_s_00E0Bc_
FN:206,_RNCINvMs1_NtNtCsjTLMFSz4sfV_13nethsm_pkcs117backend5loginNtB8_8LoginCtx4try_NCNvNtNtBc_3api5token14C_GetTokenInfo0NtNtNtCsk2ORzXQUL6f_13nethsm_sdk_rs4apis11default_api12InfoGetErrorINtB1S_15ResponseContentNtNtNtB1U_6models9info_data8InfoDataENCNCB1e_00E0Bc_
FN:206,_RNCINvMs1_NtNtCsjTLMFSz4sfV_13nethsm_pkcs117backend5loginNtB8_8LoginCtx4try_NCNvNtNtBc_3api5token14C_GetTokenInfos_0NtNtNtCsk2ORzXQUL6f_13nethsm_sdk_rs4apis11default_api18SystemInfoGetErrorINtB1U_15ResponseContentNtNtNtB1W_6models11system_info10SystemInfoENCNCB1e_s_00E0Bc_
FN:196,_RINvMs1_NtNtCsjTLMFSz4sfV_13nethsm_pkcs117backend5loginNtB6_8LoginCtx4try_NCNCNvMs_NtB8_7sessionNtB1j_7Session13delete_objects_00NtNtNtCsk2ORzXQUL6f_13nethsm_sdk_rs4apis11default_api24KeysKeyIdCertDeleteErrorINtB27_15ResponseContentuENCNCB1c_00EBa_
FN:196,_RINvMs1_NtNtCsjTLMFSz4sfV_13nethsm_pkcs117backend5loginNtB6_8LoginCtx4try_NCNCNvNtB8_3key24create_key_from_template00NtNtNtCsk2ORzXQUL6f_13nethsm_sdk_rs4apis11default_api17KeysKeyIdPutErrorINtB1V_15ResponseContentuENCNCB1c_00EBa_
FN:196,_RINvMs1_NtNtCsjTLMFSz4sfV_13nethsm_pkcs117backend5loginNtB6_8LoginCtx4try_NCNCNvNtB8_3key9fetch_key00NtNtNtCsk2ORzXQUL6f_13nethsm_sdk_rs4apis11default_api17KeysKeyIdGetErrorINtB1F_15ResponseContentNtNtNtB1H_6models10public_key9PublicKeyENCNCB1c_00EBa_
FN:196,_RINvMs1_NtNtCsjTLMFSz4sfV_13nethsm_pkcs117backend5loginNtB6_8LoginCtx4try_NCNvNtNtBa_3api5token13C_GetSlotInfo0NtNtNtCsk2ORzXQUL6f_13nethsm_sdk_rs4apis11default_api12InfoGetErrorINtB1P_15ResponseContentNtNtNtB1R_6models9info_data8InfoDataENCNCB1c_00EBa_
FN:206,_RNCINvMs1_NtNtCsjTLMFSz4sfV_13nethsm_pkcs117backend5loginNtB8_8LoginCtx4try_NCNCNvMs_NtBa_7sessionNtB1l_7Session13delete_objects_00NtNtNtCsk2ORzXQUL6f_13nethsm_sdk_rs4apis11default_api24KeysKeyIdCertDeleteErrorINtB29_15ResponseContentuENCNCB1e_00E0Bc_
FN:153,_RNCNvMs1_NtNtCsjTLMFSz4sfV_13nethsm_pkcs117backend5loginNtB7_8LoginCtx13administrator0Bb_
FN:206,_RNCINvMs1_NtNtCsjTLMFSz4sfV_13nethsm_pkcs117backend5loginNtB8_8LoginCtx4try_NCNCNvNtBa_3key17fetch_certificate00NtNtNtCsk2ORzXQUL6f_13nethsm_sdk_rs4apis11default_api21KeysKeyIdCertGetErrorINtB1Q_15ResponseContentNtNtCsf2W9KFidpdm_5alloc6string6StringENCNCB1e_00E0Bc_
FN:206,_RNCINvMs1_NtNtCsjTLMFSz4sfV_13nethsm_pkcs117backend5loginNtB8_8LoginCtx4try_NCNCNvNtBa_3key26generate_key_from_templates_00NtNtNtCsk2ORzXQUL6f_13nethsm_sdk_rs4apis11default_api21KeysGeneratePostErrorINtB21_15ResponseContentuENCNCB1e_00E0Bc_
FN:196,_RINvMs1_NtNtCsjTLMFSz4sfV_13nethsm_pkcs117backend5loginNtB6_8LoginCtx4try_NCNCNvMs_NtB8_7sessionNtB1j_7Session14fetch_all_keys0s_0NtNtNtCsk2ORzXQUL6f_13nethsm_sdk_rs4apis11default_api12KeysGetErrorINtB28_15ResponseContentINtNtCsf2W9KFidpdm_5alloc3vec3VecNtNtNtB2a_6models8key_item7KeyItemEENCNCB1c_s_00EBa_
FN:196,_RINvMs1_NtNtCsjTLMFSz4sfV_13nethsm_pkcs117backend5loginNtB6_8LoginCtx4try_NCNCNvNtB8_3key26generate_key_from_templates_00NtNtNtCsk2ORzXQUL6f_13nethsm_sdk_rs4apis11default_api21KeysGeneratePostErrorINtB1Z_15ResponseContentuENCNCB1c_00EBa_
FN:206,_RNCINvMs1_NtNtCsjTLMFSz4sfV_13nethsm_pkcs117backend5loginNtB8_8LoginCtx4try_NCNCNvMNtBa_4signNtB1j_7SignCtx10sign_final00NtNtNtCsk2ORzXQUL6f_13nethsm_sdk_rs4apis11default_api22KeysKeyIdSignPostErrorINtB1Z_15ResponseContentNtNtNtB21_6models9sign_data8SignDataENCNCB1e_00E0Bc_
FN:206,_RNCINvMs1_NtNtCsjTLMFSz4sfV_13nethsm_pkcs117backend5loginNtB8_8LoginCtx4try_NCNCNvNtNtBc_3api10generation16C_GenerateRandoms_00NtNtNtCsk2ORzXQUL6f_13nethsm_sdk_rs4apis11default_api15RandomPostErrorINtB25_15ResponseContentNtNtNtB27_6models11random_data10RandomDataENCNCB1e_00E0Bc_
FN:206,_RNCINvMs1_NtNtCsjTLMFSz4sfV_13nethsm_pkcs117backend5loginNtB8_8LoginCtx4try_NCNvNtNtBc_3api5token13C_GetSlotInfo0NtNtNtCsk2ORzXQUL6f_13nethsm_sdk_rs4apis11default_api12InfoGetErrorINtB1R_15ResponseContentNtNtNtB1T_6models9info_data8InfoDataENCNCB1e_00E0Bc_
FN:206,_RNCINvMs1_NtNtCsjTLMFSz4sfV_13nethsm_pkcs117backend5loginNtB8_8LoginCtx4try_NCNvNtNtBc_3api5token13C_GetSlotInfos_0NtNtNtCsk2ORzXQUL6f_13nethsm_sdk_rs4apis11default_api19HealthStateGetErrorINtB1T_15ResponseContentNtNtNtB1V_6models17health_state_data15HealthStateDataENCNCB1e_s_00E0Bc_
FN:196,_RINvMs1_NtNtCsjTLMFSz4sfV_13nethsm_pkcs117backend5loginNtB6_8LoginCtx4try_NCNCNvMNtB8_4signNtB1h_7SignCtx10sign_final00NtNtNtCsk2ORzXQUL6f_13nethsm_sdk_rs4apis11default_api22KeysKeyIdSignPostErrorINtB1X_15ResponseContentNtNtNtB1Z_6models9sign_data8SignDataENCNCB1c_00EBa_
FN:196,_RINvMs1_NtNtCsjTLMFSz4sfV_13nethsm_pkcs117backend5loginNtB6_8LoginCtx4try_NCNCNvNtB8_3key17fetch_certificate00NtNtNtCsk2ORzXQUL6f_13nethsm_sdk_rs4apis11default_api21KeysKeyIdCertGetErrorINtB1O_15ResponseContentNtNtCsf2W9KFidpdm_5alloc6string6StringENCNCB1c_00EBa_
FN:196,_RINvMs1_NtNtCsjTLMFSz4sfV_13nethsm_pkcs117backend5loginNtB6_8LoginCtx4try_NCNCNvNtNtBa_3api10generation16C_GenerateRandoms_00NtNtNtCsk2ORzXQUL6f_13nethsm_sdk_rs4apis11default_api15RandomPostErrorINtB23_15ResponseContentNtNtNtB25_6models11random_data10RandomDataENCNCB1c_00EBa_
FN:206,_RNCINvMs1_NtNtCsjTLMFSz4sfV_13nethsm_pkcs117backend5loginNtB8_8LoginCtx4try_NCNCNvMs_NtBa_7sessionNtB1l_7Session13delete_objects0_00NtNtNtCsk2ORzXQUL6f_13nethsm_sdk_rs4apis11default_api20KeysKeyIdDeleteErrorINtB2a_15ResponseContentuENCNCB1e_00E0Bc_
FN:206,_RNCINvMs1_NtNtCsjTLMFSz4sfV_13nethsm_pkcs117backend5loginNtB8_8LoginCtx4try_NCNCNvNtBa_3key9fetch_key00NtNtNtCsk2ORzXQUL6f_13nethsm_sdk_rs4apis11default_api17KeysKeyIdGetErrorINtB1H_15ResponseContentNtNtNtB1J_6models10public_key9PublicKeyENCNCB1e_00E0Bc_
FN:206,_RNCINvMs1_NtNtCsjTLMFSz4sfV_13nethsm_pkcs117backend5loginNtB8_8LoginCtx4try_NCNvB4_10change_pin0NtNtNtCsk2ORzXQUL6f_13nethsm_sdk_rs4apis11default_api30UsersUserIdPassphrasePostErrorINtB1A_15ResponseContentuENCNCB1e_00E0Bc_
FN:359,_RNCNCNvNtNtCsjTLMFSz4sfV_13nethsm_pkcs117backend5login13user_is_valid00B9_
FN:354,_RNCNvNtNtCsjTLMFSz4sfV_13nethsm_pkcs117backend5login13user_is_valid0B7_
FN:196,_RINvMs1_NtNtCsjTLMFSz4sfV_13nethsm_pkcs117backend5loginNtB6_8LoginCtx4try_NCNCNvMs_NtB8_7sessionNtB1j_7Session13delete_objects0_00NtNtNtCsk2ORzXQUL6f_13nethsm_sdk_rs4apis11default_api20KeysKeyIdDeleteErrorINtB28_15ResponseContentuENCNCB1c_00EBa_
FN:157,_RNCNvMs1_NtNtCsjTLMFSz4sfV_13nethsm_pkcs117backend5loginNtB7_8LoginCtx25operator_or_administrator0Bb_
FN:206,_RNCINvMs1_NtNtCsjTLMFSz4sfV_13nethsm_pkcs117backend5loginNtB8_8LoginCtx4try_NCNCNvMNtBa_7decryptNtB1j_10DecryptCtx13decrypt_finals_00NtNtNtCsk2ORzXQUL6f_13nethsm_sdk_rs4apis11default_api25KeysKeyIdDecryptPostErrorINtB2b_15ResponseContentNtNtNtB2d_6models12decrypt_data11DecryptDataENCNCB1e_00E0Bc_
FN:95,_RNCNvMs1_NtNtCsjTLMFSz4sfV_13nethsm_pkcs117backend5loginNtB7_8LoginCtx5login0Bb_
FN:274,_RNCNCNvMs1_NtNtCsjTLMFSz4sfV_13nethsm_pkcs117backend5loginNtB9_8LoginCtx10change_pin00Bd_
FN:196,_RINvMs1_NtNtCsjTLMFSz4sfV_13nethsm_pkcs117backend5loginNtB6_8LoginCtx4try_NCNCNvNtB8_3key24create_key_from_template0s_0NtNtNtCsk2ORzXQUL6f_13nethsm_sdk_rs4apis11default_api13KeysPostErrorINtB1X_15ResponseContentuENCNCB1c_s_00EBa_
FN:196,_RINvMs1_NtNtCsjTLMFSz4sfV_13nethsm_pkcs117backend5loginNtB6_8LoginCtx4try_NCNCNvNtB8_7encrypt12encrypt_datas_00NtNtNtCsk2ORzXQUL6f_13nethsm_sdk_rs4apis11default_api25KeysKeyIdEncryptPostErrorINtB1P_15ResponseContentNtNtNtB1R_6models12encrypt_data11EncryptDataENCNCB1c_00EBa_
FN:206,_RNCINvMs1_NtNtCsjTLMFSz4sfV_13nethsm_pkcs117backend5loginNtB8_8LoginCtx4try_NCNCNvNtBa_3key18upload_certificate00NtNtNtCsk2ORzXQUL6f_13nethsm_sdk_rs4apis11default_api21KeysKeyIdCertPutErrorINtB1R_15ResponseContentuENCNCB1e_00E0Bc_
FN:339,_RNCNvNtNtCsjTLMFSz4sfV_13nethsm_pkcs117backend5login19get_user_api_config0B7_
FN:196,_RINvMs1_NtNtCsjTLMFSz4sfV_13nethsm_pkcs117backend5loginNtB6_8LoginCtx4try_NCNvNtNtBa_3api5token13C_GetSlotInfos_0NtNtNtCsk2ORzXQUL6f_13nethsm_sdk_rs4apis11default_api19HealthStateGetErrorINtB1R_15ResponseContentNtNtNtB1T_6models17health_state_data15HealthStateDataENCNCB1c_s_00EBa_
FN:196,_RINvMs1_NtNtCsjTLMFSz4sfV_13nethsm_pkcs117backend5loginNtB6_8LoginCtx4try_NCNvNtNtBa_3api5token14C_GetTokenInfo0NtNtNtCsk2ORzXQUL6f_13nethsm_sdk_rs4apis11default_api12InfoGetErrorINtB1Q_15ResponseContentNtNtNtB1S_6models9info_data8InfoDataENCNCB1c_00EBa_
FN:311,_RNCNvNtNtCsjTLMFSz4sfV_13nethsm_pkcs117backend5login23get_current_user_status0B7_
FN:148,_RNCNvMs1_NtNtCsjTLMFSz4sfV_13nethsm_pkcs117backend5loginNtB7_8LoginCtx8operator0Bb_
FN:293,_RNvXs9_NtNtCsjTLMFSz4sfV_13nethsm_pkcs117backend5loginNtB5_8UserModeNtNtCskl7yHyHAUN_4core3cmp9PartialEq2eqB9_
FN:17,_RNvXs2_NtNtCsjTLMFSz4sfV_13nethsm_pkcs117backend5loginNtB5_8LoginCtxNtNtCskl7yHyHAUN_4core3fmt5Debug3fmt
FN:301,_RNvXsa_NtNtCsjTLMFSz4sfV_13nethsm_pkcs117backend5loginNtB5_10UserStatusNtNtCskl7yHyHAUN_4core5clone5Clone5cloneB9_
FN:26,_RNvXs5_NtNtCsjTLMFSz4sfV_13nethsm_pkcs117backend5loginNtB5_10LoginErrorNtNtCskl7yHyHAUN_4core5clone5Clone5cloneB9_
FN:293,_RNvXs6_NtNtCsjTLMFSz4sfV_13nethsm_pkcs117backend5loginNtB5_8UserModeNtNtCskl7yHyHAUN_4core5clone5Clone5cloneB9_
FN:46,_RNvXs_NtNtCsjTLMFSz4sfV_13nethsm_pkcs117backend5loginNtB6_5ErrorINtNtCskl7yHyHAUN_4core7convert4FromNtB4_10LoginErrorE4from
FN:252,_RNvMs1_NtNtCsjTLMFSz4sfV_13nethsm_pkcs117backend5loginNtB5_8LoginCtx10change_pin
FN:151,_RNvMs1_NtNtCsjTLMFSz4sfV_13nethsm_pkcs117backend5loginNtB5_8LoginCtx13administrator
FN:182,_RNvMs1_NtNtCsjTLMFSz4sfV_13nethsm_pkcs117backend5loginNtB5_8LoginCtx6logout
FN:301,_RNvXsb_NtNtCsjTLMFSz4sfV_13nethsm_pkcs117backend5loginNtB5_10UserStatusNtNtCskl7yHyHAUN_4core3fmt5Debug3fmt
FN:156,_RNvMs1_NtNtCsjTLMFSz4sfV_13nethsm_pkcs117backend5loginNtB5_8LoginCtx25operator_or_administrator
FN:293,_RNvXs7_NtNtCsjTLMFSz4sfV_13nethsm_pkcs117backend5loginNtB5_8UserModeNtNtCskl7yHyHAUN_4core3fmt5Debug3fmt
FN:52,_RNvXs0_NtNtCsjTLMFSz4sfV_13nethsm_pkcs117backend5loginNtB5_10LoginErrorNtNtCskl7yHyHAUN_4core3fmt7Display3fmt
FN:146,_RNvMs1_NtNtCsjTLMFSz4sfV_13nethsm_pkcs117backend5loginNtB5_8LoginCtx8operator
FN:160,_RNvMs1_NtNtCsjTLMFSz4sfV_13nethsm_pkcs117backend5loginNtB5_8LoginCtx5guest
FN:35,_RNvXNtNtCsjTLMFSz4sfV_13nethsm_pkcs117backend5loginyINtNtCskl7yHyHAUN_4core7convert4FromNtB2_10LoginErrorE4from
FN:63,_RNvMs1_NtNtCsjTLMFSz4sfV_13nethsm_pkcs117backend5loginNtB5_8LoginCtx3new
FN:17,_RNvXs3_NtNtCsjTLMFSz4sfV_13nethsm_pkcs117backend5loginNtB5_8LoginCtxNtNtCskl7yHyHAUN_4core5clone5Clone5cloneB9_
FN:164,_RNvMs1_NtNtCsjTLMFSz4sfV_13nethsm_pkcs117backend5loginNtB5_8LoginCtx12can_run_mode
FN:94,_RNvMs1_NtNtCsjTLMFSz4sfV_13nethsm_pkcs117backend5loginNtB5_8LoginCtx5login
FN:352,_RNvNtNtCsjTLMFSz4sfV_13nethsm_pkcs117backend5login13user_is_valid
FN:186,_RNvMs1_NtNtCsjTLMFSz4sfV_13nethsm_pkcs117backend5loginNtB5_8LoginCtx20get_config_user_mode
FN:141,_RNvMs1_NtNtCsjTLMFSz4sfV_13nethsm_pkcs117backend5loginNtB5_8LoginCtx13next_instance
FN:308,_RNvNtNtCsjTLMFSz4sfV_13nethsm_pkcs117backend5login23get_current_user_status
FN:249,_RNvMs1_NtNtCsjTLMFSz4sfV_13nethsm_pkcs117backend5loginNtB5_8LoginCtx8ck_state
FN:335,_RNvNtNtCsjTLMFSz4sfV_13nethsm_pkcs117backend5login19get_user_api_config
FN:26,_RNvXs4_NtNtCsjTLMFSz4sfV_13nethsm_pkcs117backend5loginNtB5_10LoginErrorNtNtCskl7yHyHAUN_4core3fmt5Debug3fmt
FN:301,_RNvXsd_NtNtCsjTLMFSz4sfV_13nethsm_pkcs117backend5loginNtB5_10UserStatusNtNtCskl7yHyHAUN_4core3cmp9PartialEq2eqB9_
FN:368,_RNCNvNtNtNtCsjTLMFSz4sfV_13nethsm_pkcs117backend5login4test18test_user_is_valid0B9_
FNDA:125,_RNvMs1_NtNtCsggOPaNFMSYu_13nethsm_pkcs117backend5loginNtB5_8LoginCtx5guest
FNDA:0,_RNvXNtNtCsggOPaNFMSYu_13nethsm_pkcs117backend5loginyINtNtCskl7yHyHAUN_4core7convert4FromNtB2_10LoginErrorE4from
FNDA:125,_RNvMs1_NtNtCsggOPaNFMSYu_13nethsm_pkcs117backend5loginNtB5_8LoginCtx3new
FNDA:63,_RNvMs1_NtNtCsggOPaNFMSYu_13nethsm_pkcs117backend5loginNtB5_8LoginCtx13administrator
FNDA:0,_RNvMs1_NtNtCsggOPaNFMSYu_13nethsm_pkcs117backend5loginNtB5_8LoginCtx6logout
FNDA:1,_RNvMs1_NtNtCsggOPaNFMSYu_13nethsm_pkcs117backend5loginNtB5_8LoginCtx10change_pin
FNDA:0,_RNvXs7_NtNtCsggOPaNFMSYu_13nethsm_pkcs117backend5loginNtB5_8UserModeNtNtCskl7yHyHAUN_4core3fmt5Debug3fmt
FNDA:52,_RNvMs1_NtNtCsggOPaNFMSYu_13nethsm_pkcs117backend5loginNtB5_8LoginCtx25operator_or_administrator
FNDA:110,_RNvXs3_NtNtCsggOPaNFMSYu_13nethsm_pkcs117backend5loginNtB5_8LoginCtxNtNtCskl7yHyHAUN_4core5clone5Clone5cloneB9_
FNDA:0,_RNvXs0_NtNtCsggOPaNFMSYu_13nethsm_pkcs117backend5loginNtB5_10LoginErrorNtNtCskl7yHyHAUN_4core3fmt7Display3fmt
FNDA:94,_RNvMs1_NtNtCsggOPaNFMSYu_13nethsm_pkcs117backend5loginNtB5_8LoginCtx8operator
FNDA:0,_RNvXsb_NtNtCsggOPaNFMSYu_13nethsm_pkcs117backend5loginNtB5_10UserStatusNtNtCskl7yHyHAUN_4core3fmt5Debug3fmt
FNDA:4,_RNvMs1_NtNtCsggOPaNFMSYu_13nethsm_pkcs117backend5loginNtB5_8LoginCtx8ck_state
FNDA:365,_RNvNtNtCsggOPaNFMSYu_13nethsm_pkcs117backend5login19get_user_api_config
FNDA:145,_RNvMs1_NtNtCsggOPaNFMSYu_13nethsm_pkcs117backend5loginNtB5_8LoginCtx12can_run_mode
FNDA:13,_RNvMs1_NtNtCsggOPaNFMSYu_13nethsm_pkcs117backend5loginNtB5_8LoginCtx5login
FNDA:269,_RNvMs1_NtNtCsggOPaNFMSYu_13nethsm_pkcs117backend5loginNtB5_8LoginCtx20get_config_user_mode
FNDA:145,_RNvNtNtCsggOPaNFMSYu_13nethsm_pkcs117backend5login13user_is_valid
FNDA:282,_RNvMs1_NtNtCsggOPaNFMSYu_13nethsm_pkcs117backend5loginNtB5_8LoginCtx13next_instance
FNDA:13,_RNvNtNtCsggOPaNFMSYu_13nethsm_pkcs117backend5login23get_current_user_status
FNDA:0,_RNvXs4_NtNtCsggOPaNFMSYu_13nethsm_pkcs117backend5loginNtB5_10LoginErrorNtNtCskl7yHyHAUN_4core3fmt5Debug3fmt
FNDA:13,_RNvXsd_NtNtCsggOPaNFMSYu_13nethsm_pkcs117backend5loginNtB5_10UserStatusNtNtCskl7yHyHAUN_4core3cmp9PartialEq2eqB9_
FNDA:0,_RNvXs_NtNtCsggOPaNFMSYu_13nethsm_pkcs117backend5loginNtB6_5ErrorINtNtCskl7yHyHAUN_4core7convert4FromNtB4_10LoginErrorE4from
FNDA:51,_RNCINvMs1_NtNtCsggOPaNFMSYu_13nethsm_pkcs117backend5loginNtB8_8LoginCtx4try_NCNCNvNtBa_3key9fetch_key00NtNtNtCsk2ORzXQUL6f_13nethsm_sdk_rs4apis11default_api17KeysKeyIdGetErrorINtB1H_15ResponseContentNtNtNtB1J_6models10public_key9PublicKeyENCNCB1e_00E0Bc_
FNDA:5,_RNCINvMs1_NtNtCsggOPaNFMSYu_13nethsm_pkcs117backend5loginNtB8_8LoginCtx4try_NCNCNvNtNtBc_3api10generation16C_GenerateRandoms_00NtNtNtCsk2ORzXQUL6f_13nethsm_sdk_rs4apis11default_api15RandomPostErrorINtB25_15ResponseContentNtNtNtB27_6models11random_data10RandomDataENCNCB1e_00E0Bc_
FNDA:1,_RNCNCNvMs1_NtNtCsggOPaNFMSYu_13nethsm_pkcs117backend5loginNtB9_8LoginCtx10change_pin00Bd_
FNDA:240,_RNCNvNtNtCsggOPaNFMSYu_13nethsm_pkcs117backend5login19get_user_api_config0B7_
FNDA:1,_RINvMs1_NtNtCsggOPaNFMSYu_13nethsm_pkcs117backend5loginNtB6_8LoginCtx4try_NCNCNvMs_NtB8_7sessionNtB1j_7Session14fetch_all_keys0s_0NtNtNtCsk2ORzXQUL6f_13nethsm_sdk_rs4apis11default_api12KeysGetErrorINtB28_15ResponseContentINtNtCsf2W9KFidpdm_5alloc3vec3VecNtNtNtB2a_6models8key_item7KeyItemEENCNCB1c_s_00EBa_
FNDA:0,_RINvMs1_NtNtCsggOPaNFMSYu_13nethsm_pkcs117backend5loginNtB6_8LoginCtx4try_NCNCNvNtB8_3key18upload_certificate00NtNtNtCsk2ORzXQUL6f_13nethsm_sdk_rs4apis11default_api21KeysKeyIdCertPutErrorINtB1P_15ResponseContentuENCNCB1c_00EBa_
FNDA:1,_RNCINvMs1_NtNtCsggOPaNFMSYu_13nethsm_pkcs117backend5loginNtB8_8LoginCtx4try_NCNCNvMs_NtBa_7sessionNtB1l_7Session14fetch_all_keys0s_0NtNtNtCsk2ORzXQUL6f_13nethsm_sdk_rs4apis11default_api12KeysGetErrorINtB2a_15ResponseContentINtNtCsf2W9KFidpdm_5alloc3vec3VecNtNtNtB2c_6models8key_item7KeyItemEENCNCB1e_s_00E0Bc_
FNDA:2,_RNCINvMs1_NtNtCsggOPaNFMSYu_13nethsm_pkcs117backend5loginNtB8_8LoginCtx4try_NCNCNvNtBa_3key24create_key_from_template00NtNtNtCsk2ORzXQUL6f_13nethsm_sdk_rs4apis11default_api17KeysKeyIdPutErrorINtB1X_15ResponseContentuENCNCB1e_00E0Bc_
FNDA:2,_RNCINvMs1_NtNtCsggOPaNFMSYu_13nethsm_pkcs117backend5loginNtB8_8LoginCtx4try_NCNCNvNtBa_3key24create_key_from_template0s_0NtNtNtCsk2ORzXQUL6f_13nethsm_sdk_rs4apis11default_api13KeysPostErrorINtB1Z_15ResponseContentuENCNCB1e_s_00E0Bc_
FNDA:41,_RNCINvMs1_NtNtCsggOPaNFMSYu_13nethsm_pkcs117backend5loginNtB8_8LoginCtx4try_NCNvNtNtBc_3api5token14C_GetTokenInfo0NtNtNtCsk2ORzXQUL6f_13nethsm_sdk_rs4apis11default_api12InfoGetErrorINtB1S_15ResponseContentNtNtNtB1U_6models9info_data8InfoDataENCNCB1e_00E0Bc_
FNDA:41,_RNCINvMs1_NtNtCsggOPaNFMSYu_13nethsm_pkcs117backend5loginNtB8_8LoginCtx4try_NCNvNtNtBc_3api5token14C_GetTokenInfos_0NtNtNtCsk2ORzXQUL6f_13nethsm_sdk_rs4apis11default_api18SystemInfoGetErrorINtB1U_15ResponseContentNtNtNtB1W_6models11system_info10SystemInfoENCNCB1e_s_00E0Bc_
FNDA:145,_RNCNCNvNtNtCsggOPaNFMSYu_13nethsm_pkcs117backend5login13user_is_valid00B9_
FNDA:0,_RINvMs1_NtNtCsggOPaNFMSYu_13nethsm_pkcs117backend5loginNtB6_8LoginCtx4try_NCNCNvNtB8_3key17fetch_certificate00NtNtNtCsk2ORzXQUL6f_13nethsm_sdk_rs4apis11default_api21KeysKeyIdCertGetErrorINtB1O_15ResponseContentNtNtCsf2W9KFidpdm_5alloc6string6StringENCNCB1c_00EBa_
FNDA:94,_RNCNvMs1_NtNtCsggOPaNFMSYu_13nethsm_pkcs117backend5loginNtB7_8LoginCtx8operator0Bb_
FNDA:12,_RINvMs1_NtNtCsggOPaNFMSYu_13nethsm_pkcs117backend5loginNtB6_8LoginCtx4try_NCNCNvMNtB8_7decryptNtB1h_10DecryptCtx13decrypt_finals_00NtNtNtCsk2ORzXQUL6f_13nethsm_sdk_rs4apis11default_api25KeysKeyIdDecryptPostErrorINtB29_15ResponseContentNtNtNtB2b_6models12decrypt_data11DecryptDataENCNCB1c_00EBa_
FNDA:42,_RINvMs1_NtNtCsggOPaNFMSYu_13nethsm_pkcs117backend5loginNtB6_8LoginCtx4try_NCNvNtNtBa_3api5token13C_GetSlotInfos_0NtNtNtCsk2ORzXQUL6f_13nethsm_sdk_rs4apis11default_api19HealthStateGetErrorINtB1R_15ResponseContentNtNtNtB1T_6models17health_state_data15HealthStateDataENCNCB1c_s_00EBa_
FNDA:41,_RINvMs1_NtNtCsggOPaNFMSYu_13nethsm_pkcs117backend5loginNtB6_8LoginCtx4try_NCNvNtNtBa_3api5token14C_GetTokenInfos_0NtNtNtCsk2ORzXQUL6f_13nethsm_sdk_rs4apis11default_api18SystemInfoGetErrorINtB1S_15ResponseContentNtNtNtB1U_6models11system_info10SystemInfoENCNCB1c_s_00EBa_
FNDA:63,_RNCNvMs1_NtNtCsggOPaNFMSYu_13nethsm_pkcs117backend5loginNtB7_8LoginCtx13administrator0Bb_
FNDA:0,_RNCINvMs1_NtNtCsggOPaNFMSYu_13nethsm_pkcs117backend5loginNtB8_8LoginCtx4try_NCNCNvNtBa_3key17fetch_certificate00NtNtNtCsk2ORzXQUL6f_13nethsm_sdk_rs4apis11default_api21KeysKeyIdCertGetErrorINtB1Q_15ResponseContentNtNtCsf2W9KFidpdm_5alloc6string6StringENCNCB1e_00E0Bc_
FNDA:1,_RNCINvMs1_NtNtCsggOPaNFMSYu_13nethsm_pkcs117backend5loginNtB8_8LoginCtx4try_NCNCNvNtBa_7encrypt12encrypt_datas_00NtNtNtCsk2ORzXQUL6f_13nethsm_sdk_rs4apis11default_api25KeysKeyIdEncryptPostErrorINtB1R_15ResponseContentNtNtNtB1T_6models12encrypt_data11EncryptDataENCNCB1e_00E0Bc_
FNDA:1,_RINvMs1_NtNtCsggOPaNFMSYu_13nethsm_pkcs117backend5loginNtB6_8LoginCtx4try_NCNCNvNtB8_7encrypt12encrypt_datas_00NtNtNtCsk2ORzXQUL6f_13nethsm_sdk_rs4apis11default_api25KeysKeyIdEncryptPostErrorINtB1P_15ResponseContentNtNtNtB1R_6models12encrypt_data11EncryptDataENCNCB1c_00EBa_
FNDA:2,_RINvMs1_NtNtCsggOPaNFMSYu_13nethsm_pkcs117backend5loginNtB6_8LoginCtx4try_NCNCNvNtB8_3key24create_key_from_template00NtNtNtCsk2ORzXQUL6f_13nethsm_sdk_rs4apis11default_api17KeysKeyIdPutErrorINtB1V_15ResponseContentuENCNCB1c_00EBa_
FNDA:20,_RINvMs1_NtNtCsggOPaNFMSYu_13nethsm_pkcs117backend5loginNtB6_8LoginCtx4try_NCNCNvMNtB8_4signNtB1h_7SignCtx10sign_final00NtNtNtCsk2ORzXQUL6f_13nethsm_sdk_rs4apis11default_api22KeysKeyIdSignPostErrorINtB1X_15ResponseContentNtNtNtB1Z_6models9sign_data8SignDataENCNCB1c_00EBa_
FNDA:51,_RINvMs1_NtNtCsggOPaNFMSYu_13nethsm_pkcs117backend5loginNtB6_8LoginCtx4try_NCNCNvNtB8_3key9fetch_key00NtNtNtCsk2ORzXQUL6f_13nethsm_sdk_rs4apis11default_api17KeysKeyIdGetErrorINtB1F_15ResponseContentNtNtNtB1H_6models10public_key9PublicKeyENCNCB1c_00EBa_
FNDA:0,_RNCINvMs1_NtNtCsggOPaNFMSYu_13nethsm_pkcs117backend5loginNtB8_8LoginCtx4try_NCNCNvNtBa_3key18upload_certificate00NtNtNtCsk2ORzXQUL6f_13nethsm_sdk_rs4apis11default_api21KeysKeyIdCertPutErrorINtB1R_15ResponseContentuENCNCB1e_00E0Bc_
FNDA:42,_RINvMs1_NtNtCsggOPaNFMSYu_13nethsm_pkcs117backend5loginNtB6_8LoginCtx4try_NCNvNtNtBa_3api5token13C_GetSlotInfo0NtNtNtCsk2ORzXQUL6f_13nethsm_sdk_rs4apis11default_api12InfoGetErrorINtB1P_15ResponseContentNtNtNtB1R_6models9info_data8InfoDataENCNCB1c_00EBa_
FNDA:41,_RINvMs1_NtNtCsggOPaNFMSYu_13nethsm_pkcs117backend5loginNtB6_8LoginCtx4try_NCNvNtNtBa_3api5token14C_GetTokenInfo0NtNtNtCsk2ORzXQUL6f_13nethsm_sdk_rs4apis11default_api12InfoGetErrorINtB1Q_15ResponseContentNtNtNtB1S_6models9info_data8InfoDataENCNCB1c_00EBa_
FNDA:12,_RNCINvMs1_NtNtCsggOPaNFMSYu_13nethsm_pkcs117backend5loginNtB8_8LoginCtx4try_NCNCNvMNtBa_7decryptNtB1j_10DecryptCtx13decrypt_finals_00NtNtNtCsk2ORzXQUL6f_13nethsm_sdk_rs4apis11default_api25KeysKeyIdDecryptPostErrorINtB2b_15ResponseContentNtNtNtB2d_6models12decrypt_data11DecryptDataENCNCB1e_00E0Bc_
FNDA:13,_RNCNvNtNtCsggOPaNFMSYu_13nethsm_pkcs117backend5login23get_current_user_status0B7_
FNDA:1,_RINvMs1_NtNtCsggOPaNFMSYu_13nethsm_pkcs117backend5loginNtB6_8LoginCtx4try_NCNCNvMs_NtB8_7sessionNtB1j_7Session13delete_objects0_00NtNtNtCsk2ORzXQUL6f_13nethsm_sdk_rs4apis11default_api20KeysKeyIdDeleteErrorINtB28_15ResponseContentuENCNCB1c_00EBa_
FNDA:7,_RINvMs1_NtNtCsggOPaNFMSYu_13nethsm_pkcs117backend5loginNtB6_8LoginCtx4try_NCNCNvNtB8_3key26generate_key_from_templates_00NtNtNtCsk2ORzXQUL6f_13nethsm_sdk_rs4apis11default_api21KeysGeneratePostErrorINtB1Z_15ResponseContentuENCNCB1c_00EBa_
FNDA:1,_RNCINvMs1_NtNtCsggOPaNFMSYu_13nethsm_pkcs117backend5loginNtB8_8LoginCtx4try_NCNCNvMs_NtBa_7sessionNtB1l_7Session13delete_objects0_00NtNtNtCsk2ORzXQUL6f_13nethsm_sdk_rs4apis11default_api20KeysKeyIdDeleteErrorINtB2a_15ResponseContentuENCNCB1e_00E0Bc_
FNDA:1,_RNCINvMs1_NtNtCsggOPaNFMSYu_13nethsm_pkcs117backend5loginNtB8_8LoginCtx4try_NCNvB4_10change_pin0NtNtNtCsk2ORzXQUL6f_13nethsm_sdk_rs4apis11default_api30UsersUserIdPassphrasePostErrorINtB1A_15ResponseContentuENCNCB1e_00E0Bc_
FNDA:145,_RNCNvNtNtCsggOPaNFMSYu_13nethsm_pkcs117backend5login13user_is_valid0B7_
FNDA:0,_RINvMs1_NtNtCsggOPaNFMSYu_13nethsm_pkcs117backend5loginNtB6_8LoginCtx4try_NCNCNvMs_NtB8_7sessionNtB1j_7Session13delete_objects_00NtNtNtCsk2ORzXQUL6f_13nethsm_sdk_rs4apis11default_api24KeysKeyIdCertDeleteErrorINtB27_15ResponseContentuENCNCB1c_00EBa_
FNDA:0,_RNCNvMs1_NtNtCsggOPaNFMSYu_13nethsm_pkcs117backend5loginNtB7_8LoginCtx25operator_or_administrator0Bb_
FNDA:1,_RINvMs1_NtNtCsggOPaNFMSYu_13nethsm_pkcs117backend5loginNtB6_8LoginCtx4try_NCNvB2_10change_pin0NtNtNtCsk2ORzXQUL6f_13nethsm_sdk_rs4apis11default_api30UsersUserIdPassphrasePostErrorINtB1y_15ResponseContentuENCNCB1c_00EBa_
FNDA:20,_RNCINvMs1_NtNtCsggOPaNFMSYu_13nethsm_pkcs117backend5loginNtB8_8LoginCtx4try_NCNCNvMNtBa_4signNtB1j_7SignCtx10sign_final00NtNtNtCsk2ORzXQUL6f_13nethsm_sdk_rs4apis11default_api22KeysKeyIdSignPostErrorINtB1Z_15ResponseContentNtNtNtB21_6models9sign_data8SignDataENCNCB1e_00E0Bc_
FNDA:42,_RNCINvMs1_NtNtCsggOPaNFMSYu_13nethsm_pkcs117backend5loginNtB8_8LoginCtx4try_NCNvNtNtBc_3api5token13C_GetSlotInfo0NtNtNtCsk2ORzXQUL6f_13nethsm_sdk_rs4apis11default_api12InfoGetErrorINtB1R_15ResponseContentNtNtNtB1T_6models9info_data8InfoDataENCNCB1e_00E0Bc_
FNDA:0,_RNCNvMs1_NtNtCsggOPaNFMSYu_13nethsm_pkcs117backend5loginNtB7_8LoginCtx5login0Bb_
FNDA:42,_RNCINvMs1_NtNtCsggOPaNFMSYu_13nethsm_pkcs117backend5loginNtB8_8LoginCtx4try_NCNvNtNtBc_3api5token13C_GetSlotInfos_0NtNtNtCsk2ORzXQUL6f_13nethsm_sdk_rs4apis11default_api19HealthStateGetErrorINtB1T_15ResponseContentNtNtNtB1V_6models17health_state_data15HealthStateDataENCNCB1e_s_00E0Bc_
FNDA:5,_RINvMs1_NtNtCsggOPaNFMSYu_13nethsm_pkcs117backend5loginNtB6_8LoginCtx4try_NCNCNvNtNtBa_3api10generation16C_GenerateRandoms_00NtNtNtCsk2ORzXQUL6f_13nethsm_sdk_rs4apis11default_api15RandomPostErrorINtB23_15ResponseContentNtNtNtB25_6models11random_data10RandomDataENCNCB1c_00EBa_
FNDA:0,_RNCINvMs1_NtNtCsggOPaNFMSYu_13nethsm_pkcs117backend5loginNtB8_8LoginCtx4try_NCNCNvMs_NtBa_7sessionNtB1l_7Session13delete_objects_00NtNtNtCsk2ORzXQUL6f_13nethsm_sdk_rs4apis11default_api24KeysKeyIdCertDeleteErrorINtB29_15ResponseContentuENCNCB1e_00E0Bc_
FNDA:2,_RINvMs1_NtNtCsggOPaNFMSYu_13nethsm_pkcs117backend5loginNtB6_8LoginCtx4try_NCNCNvNtB8_3key24create_key_from_template0s_0NtNtNtCsk2ORzXQUL6f_13nethsm_sdk_rs4apis11default_api13KeysPostErrorINtB1X_15ResponseContentuENCNCB1c_s_00EBa_
FNDA:7,_RNCINvMs1_NtNtCsggOPaNFMSYu_13nethsm_pkcs117backend5loginNtB8_8LoginCtx4try_NCNCNvNtBa_3key26generate_key_from_templates_00NtNtNtCsk2ORzXQUL6f_13nethsm_sdk_rs4apis11default_api21KeysGeneratePostErrorINtB21_15ResponseContentuENCNCB1e_00E0Bc_
FNDA:0,_RNvXsa_NtNtCsggOPaNFMSYu_13nethsm_pkcs117backend5loginNtB5_10UserStatusNtNtCskl7yHyHAUN_4core5clone5Clone5cloneB9_
FNDA:0,_RNvXs5_NtNtCsggOPaNFMSYu_13nethsm_pkcs117backend5loginNtB5_10LoginErrorNtNtCskl7yHyHAUN_4core5clone5Clone5cloneB9_
FNDA:0,_RNvXs6_NtNtCsggOPaNFMSYu_13nethsm_pkcs117backend5loginNtB5_8UserModeNtNtCskl7yHyHAUN_4core5clone5Clone5cloneB9_
FNDA:0,_RNvXs9_NtNtCsggOPaNFMSYu_13nethsm_pkcs117backend5loginNtB5_8UserModeNtNtCskl7yHyHAUN_4core3cmp9PartialEq2eqB9_
FNDA:0,_RNvXs2_NtNtCsggOPaNFMSYu_13nethsm_pkcs117backend5loginNtB5_8LoginCtxNtNtCskl7yHyHAUN_4core3fmt5Debug3fmt
FNDA:1,_RNvNtNtNtCsjTLMFSz4sfV_13nethsm_pkcs117backend5login4tests_18test_user_is_valid
FNDA:0,_RINvMs1_NtNtCsjTLMFSz4sfV_13nethsm_pkcs117backend5loginNtB6_8LoginCtx4try_NCNvNtNtBa_3api5token14C_GetTokenInfos_0NtNtNtCsk2ORzXQUL6f_13nethsm_sdk_rs4apis11default_api18SystemInfoGetErrorINtB1S_15ResponseContentNtNtNtB1U_6models11system_info10SystemInfoENCNCB1c_s_00EBa_
FNDA:0,_RNCINvMs1_NtNtCsjTLMFSz4sfV_13nethsm_pkcs117backend5loginNtB8_8LoginCtx4try_NCNCNvNtBa_7encrypt12encrypt_datas_00NtNtNtCsk2ORzXQUL6f_13nethsm_sdk_rs4apis11default_api25KeysKeyIdEncryptPostErrorINtB1R_15ResponseContentNtNtNtB1T_6models12encrypt_data11EncryptDataENCNCB1e_00E0Bc_
FNDA:0,_RINvMs1_NtNtCsjTLMFSz4sfV_13nethsm_pkcs117backend5loginNtB6_8LoginCtx4try_NCNCNvMNtB8_7decryptNtB1h_10DecryptCtx13decrypt_finals_00NtNtNtCsk2ORzXQUL6f_13nethsm_sdk_rs4apis11default_api25KeysKeyIdDecryptPostErrorINtB29_15ResponseContentNtNtNtB2b_6models12decrypt_data11DecryptDataENCNCB1c_00EBa_
FNDA:0,_RINvMs1_NtNtCsjTLMFSz4sfV_13nethsm_pkcs117backend5loginNtB6_8LoginCtx4try_NCNCNvNtB8_3key18upload_certificate00NtNtNtCsk2ORzXQUL6f_13nethsm_sdk_rs4apis11default_api21KeysKeyIdCertPutErrorINtB1P_15ResponseContentuENCNCB1c_00EBa_
FNDA:0,_RINvMs1_NtNtCsjTLMFSz4sfV_13nethsm_pkcs117backend5loginNtB6_8LoginCtx4try_NCNvB2_10change_pin0NtNtNtCsk2ORzXQUL6f_13nethsm_sdk_rs4apis11default_api30UsersUserIdPassphrasePostErrorINtB1y_15ResponseContentuENCNCB1c_00EBa_
FNDA:0,_RNCINvMs1_NtNtCsjTLMFSz4sfV_13nethsm_pkcs117backend5loginNtB8_8LoginCtx4try_NCNCNvMs_NtBa_7sessionNtB1l_7Session14fetch_all_keys0s_0NtNtNtCsk2ORzXQUL6f_13nethsm_sdk_rs4apis11default_api12KeysGetErrorINtB2a_15ResponseContentINtNtCsf2W9KFidpdm_5alloc3vec3VecNtNtNtB2c_6models8key_item7KeyItemEENCNCB1e_s_00E0Bc_
FNDA:0,_RNCINvMs1_NtNtCsjTLMFSz4sfV_13nethsm_pkcs117backend5loginNtB8_8LoginCtx4try_NCNCNvNtBa_3key24create_key_from_template00NtNtNtCsk2ORzXQUL6f_13nethsm_sdk_rs4apis11default_api17KeysKeyIdPutErrorINtB1X_15ResponseContentuENCNCB1e_00E0Bc_
FNDA:0,_RNCINvMs1_NtNtCsjTLMFSz4sfV_13nethsm_pkcs117backend5loginNtB8_8LoginCtx4try_NCNCNvNtBa_3key24create_key_from_template0s_0NtNtNtCsk2ORzXQUL6f_13nethsm_sdk_rs4apis11default_api13KeysPostErrorINtB1Z_15ResponseContentuENCNCB1e_s_00E0Bc_
FNDA:0,_RNCINvMs1_NtNtCsjTLMFSz4sfV_13nethsm_pkcs117backend5loginNtB8_8LoginCtx4try_NCNvNtNtBc_3api5token14C_GetTokenInfo0NtNtNtCsk2ORzXQUL6f_13nethsm_sdk_rs4apis11default_api12InfoGetErrorINtB1S_15ResponseContentNtNtNtB1U_6models9info_data8InfoDataENCNCB1e_00E0Bc_
FNDA:0,_RNCINvMs1_NtNtCsjTLMFSz4sfV_13nethsm_pkcs117backend5loginNtB8_8LoginCtx4try_NCNvNtNtBc_3api5token14C_GetTokenInfos_0NtNtNtCsk2ORzXQUL6f_13nethsm_sdk_rs4apis11default_api18SystemInfoGetErrorINtB1U_15ResponseContentNtNtNtB1W_6models11system_info10SystemInfoENCNCB1e_s_00E0Bc_
FNDA:0,_RINvMs1_NtNtCsjTLMFSz4sfV_13nethsm_pkcs117backend5loginNtB6_8LoginCtx4try_NCNCNvMs_NtB8_7sessionNtB1j_7Session13delete_objects_00NtNtNtCsk2ORzXQUL6f_13nethsm_sdk_rs4apis11default_api24KeysKeyIdCertDeleteErrorINtB27_15ResponseContentuENCNCB1c_00EBa_
FNDA:0,_RINvMs1_NtNtCsjTLMFSz4sfV_13nethsm_pkcs117backend5loginNtB6_8LoginCtx4try_NCNCNvNtB8_3key24create_key_from_template00NtNtNtCsk2ORzXQUL6f_13nethsm_sdk_rs4apis11default_api17KeysKeyIdPutErrorINtB1V_15ResponseContentuENCNCB1c_00EBa_
FNDA:0,_RINvMs1_NtNtCsjTLMFSz4sfV_13nethsm_pkcs117backend5loginNtB6_8LoginCtx4try_NCNCNvNtB8_3key9fetch_key00NtNtNtCsk2ORzXQUL6f_13nethsm_sdk_rs4apis11default_api17KeysKeyIdGetErrorINtB1F_15ResponseContentNtNtNtB1H_6models10public_key9PublicKeyENCNCB1c_00EBa_
FNDA:0,_RINvMs1_NtNtCsjTLMFSz4sfV_13nethsm_pkcs117backend5loginNtB6_8LoginCtx4try_NCNvNtNtBa_3api5token13C_GetSlotInfo0NtNtNtCsk2ORzXQUL6f_13nethsm_sdk_rs4apis11default_api12InfoGetErrorINtB1P_15ResponseContentNtNtNtB1R_6models9info_data8InfoDataENCNCB1c_00EBa_
FNDA:0,_RNCINvMs1_NtNtCsjTLMFSz4sfV_13nethsm_pkcs117backend5loginNtB8_8LoginCtx4try_NCNCNvMs_NtBa_7sessionNtB1l_7Session13delete_objects_00NtNtNtCsk2ORzXQUL6f_13nethsm_sdk_rs4apis11default_api24KeysKeyIdCertDeleteErrorINtB29_15ResponseContentuENCNCB1e_00E0Bc_
FNDA:0,_RNCNvMs1_NtNtCsjTLMFSz4sfV_13nethsm_pkcs117backend5loginNtB7_8LoginCtx13administrator0Bb_
FNDA:0,_RNCINvMs1_NtNtCsjTLMFSz4sfV_13nethsm_pkcs117backend5loginNtB8_8LoginCtx4try_NCNCNvNtBa_3key17fetch_certificate00NtNtNtCsk2ORzXQUL6f_13nethsm_sdk_rs4apis11default_api21KeysKeyIdCertGetErrorINtB1Q_15ResponseContentNtNtCsf2W9KFidpdm_5alloc6string6StringENCNCB1e_00E0Bc_
FNDA:0,_RNCINvMs1_NtNtCsjTLMFSz4sfV_13nethsm_pkcs117backend5loginNtB8_8LoginCtx4try_NCNCNvNtBa_3key26generate_key_from_templates_00NtNtNtCsk2ORzXQUL6f_13nethsm_sdk_rs4apis11default_api21KeysGeneratePostErrorINtB21_15ResponseContentuENCNCB1e_00E0Bc_
FNDA:0,_RINvMs1_NtNtCsjTLMFSz4sfV_13nethsm_pkcs117backend5loginNtB6_8LoginCtx4try_NCNCNvMs_NtB8_7sessionNtB1j_7Session14fetch_all_keys0s_0NtNtNtCsk2ORzXQUL6f_13nethsm_sdk_rs4apis11default_api12KeysGetErrorINtB28_15ResponseContentINtNtCsf2W9KFidpdm_5alloc3vec3VecNtNtNtB2a_6models8key_item7KeyItemEENCNCB1c_s_00EBa_
FNDA:0,_RINvMs1_NtNtCsjTLMFSz4sfV_13nethsm_pkcs117backend5loginNtB6_8LoginCtx4try_NCNCNvNtB8_3key26generate_key_from_templates_00NtNtNtCsk2ORzXQUL6f_13nethsm_sdk_rs4apis11default_api21KeysGeneratePostErrorINtB1Z_15ResponseContentuENCNCB1c_00EBa_
FNDA:0,_RNCINvMs1_NtNtCsjTLMFSz4sfV_13nethsm_pkcs117backend5loginNtB8_8LoginCtx4try_NCNCNvMNtBa_4signNtB1j_7SignCtx10sign_final00NtNtNtCsk2ORzXQUL6f_13nethsm_sdk_rs4apis11default_api22KeysKeyIdSignPostErrorINtB1Z_15ResponseContentNtNtNtB21_6models9sign_data8SignDataENCNCB1e_00E0Bc_
FNDA:0,_RNCINvMs1_NtNtCsjTLMFSz4sfV_13nethsm_pkcs117backend5loginNtB8_8LoginCtx4try_NCNCNvNtNtBc_3api10generation16C_GenerateRandoms_00NtNtNtCsk2ORzXQUL6f_13nethsm_sdk_rs4apis11default_api15RandomPostErrorINtB25_15ResponseContentNtNtNtB27_6models11random_data10RandomDataENCNCB1e_00E0Bc_
FNDA:0,_RNCINvMs1_NtNtCsjTLMFSz4sfV_13nethsm_pkcs117backend5loginNtB8_8LoginCtx4try_NCNvNtNtBc_3api5token13C_GetSlotInfo0NtNtNtCsk2ORzXQUL6f_13nethsm_sdk_rs4apis11default_api12InfoGetErrorINtB1R_15ResponseContentNtNtNtB1T_6models9info_data8InfoDataENCNCB1e_00E0Bc_
FNDA:0,_RNCINvMs1_NtNtCsjTLMFSz4sfV_13nethsm_pkcs117backend5loginNtB8_8LoginCtx4try_NCNvNtNtBc_3api5token13C_GetSlotInfos_0NtNtNtCsk2ORzXQUL6f_13nethsm_sdk_rs4apis11default_api19HealthStateGetErrorINtB1T_15ResponseContentNtNtNtB1V_6models17health_state_data15HealthStateDataENCNCB1e_s_00E0Bc_
FNDA:0,_RINvMs1_NtNtCsjTLMFSz4sfV_13nethsm_pkcs117backend5loginNtB6_8LoginCtx4try_NCNCNvMNtB8_4signNtB1h_7SignCtx10sign_final00NtNtNtCsk2ORzXQUL6f_13nethsm_sdk_rs4apis11default_api22KeysKeyIdSignPostErrorINtB1X_15ResponseContentNtNtNtB1Z_6models9sign_data8SignDataENCNCB1c_00EBa_
FNDA:0,_RINvMs1_NtNtCsjTLMFSz4sfV_13nethsm_pkcs117backend5loginNtB6_8LoginCtx4try_NCNCNvNtB8_3key17fetch_certificate00NtNtNtCsk2ORzXQUL6f_13nethsm_sdk_rs4apis11default_api21KeysKeyIdCertGetErrorINtB1O_15ResponseContentNtNtCsf2W9KFidpdm_5alloc6string6StringENCNCB1c_00EBa_
FNDA:0,_RINvMs1_NtNtCsjTLMFSz4sfV_13nethsm_pkcs117backend5loginNtB6_8LoginCtx4try_NCNCNvNtNtBa_3api10generation16C_GenerateRandoms_00NtNtNtCsk2ORzXQUL6f_13nethsm_sdk_rs4apis11default_api15RandomPostErrorINtB23_15ResponseContentNtNtNtB25_6models11random_data10RandomDataENCNCB1c_00EBa_
FNDA:0,_RNCINvMs1_NtNtCsjTLMFSz4sfV_13nethsm_pkcs117backend5loginNtB8_8LoginCtx4try_NCNCNvMs_NtBa_7sessionNtB1l_7Session13delete_objects0_00NtNtNtCsk2ORzXQUL6f_13nethsm_sdk_rs4apis11default_api20KeysKeyIdDeleteErrorINtB2a_15ResponseContentuENCNCB1e_00E0Bc_
FNDA:0,_RNCINvMs1_NtNtCsjTLMFSz4sfV_13nethsm_pkcs117backend5loginNtB8_8LoginCtx4try_NCNCNvNtBa_3key9fetch_key00NtNtNtCsk2ORzXQUL6f_13nethsm_sdk_rs4apis11default_api17KeysKeyIdGetErrorINtB1H_15ResponseContentNtNtNtB1J_6models10public_key9PublicKeyENCNCB1e_00E0Bc_
FNDA:0,_RNCINvMs1_NtNtCsjTLMFSz4sfV_13nethsm_pkcs117backend5loginNtB8_8LoginCtx4try_NCNvB4_10change_pin0NtNtNtCsk2ORzXQUL6f_13nethsm_sdk_rs4apis11default_api30UsersUserIdPassphrasePostErrorINtB1A_15ResponseContentuENCNCB1e_00E0Bc_
FNDA:1,_RNCNCNvNtNtCsjTLMFSz4sfV_13nethsm_pkcs117backend5login13user_is_valid00B9_
FNDA:2,_RNCNvNtNtCsjTLMFSz4sfV_13nethsm_pkcs117backend5login13user_is_valid0B7_
FNDA:0,_RINvMs1_NtNtCsjTLMFSz4sfV_13nethsm_pkcs117backend5loginNtB6_8LoginCtx4try_NCNCNvMs_NtB8_7sessionNtB1j_7Session13delete_objects0_00NtNtNtCsk2ORzXQUL6f_13nethsm_sdk_rs4apis11default_api20KeysKeyIdDeleteErrorINtB28_15ResponseContentuENCNCB1c_00EBa_
FNDA:0,_RNCNvMs1_NtNtCsjTLMFSz4sfV_13nethsm_pkcs117backend5loginNtB7_8LoginCtx25operator_or_administrator0Bb_
FNDA:0,_RNCINvMs1_NtNtCsjTLMFSz4sfV_13nethsm_pkcs117backend5loginNtB8_8LoginCtx4try_NCNCNvMNtBa_7decryptNtB1j_10DecryptCtx13decrypt_finals_00NtNtNtCsk2ORzXQUL6f_13nethsm_sdk_rs4apis11default_api25KeysKeyIdDecryptPostErrorINtB2b_15ResponseContentNtNtNtB2d_6models12decrypt_data11DecryptDataENCNCB1e_00E0Bc_
FNDA:0,_RNCNvMs1_NtNtCsjTLMFSz4sfV_13nethsm_pkcs117backend5loginNtB7_8LoginCtx5login0Bb_
FNDA:0,_RNCNCNvMs1_NtNtCsjTLMFSz4sfV_13nethsm_pkcs117backend5loginNtB9_8LoginCtx10change_pin00Bd_
FNDA:0,_RINvMs1_NtNtCsjTLMFSz4sfV_13nethsm_pkcs117backend5loginNtB6_8LoginCtx4try_NCNCNvNtB8_3key24create_key_from_template0s_0NtNtNtCsk2ORzXQUL6f_13nethsm_sdk_rs4apis11default_api13KeysPostErrorINtB1X_15ResponseContentuENCNCB1c_s_00EBa_
FNDA:0,_RINvMs1_NtNtCsjTLMFSz4sfV_13nethsm_pkcs117backend5loginNtB6_8LoginCtx4try_NCNCNvNtB8_7encrypt12encrypt_datas_00NtNtNtCsk2ORzXQUL6f_13nethsm_sdk_rs4apis11default_api25KeysKeyIdEncryptPostErrorINtB1P_15ResponseContentNtNtNtB1R_6models12encrypt_data11EncryptDataENCNCB1c_00EBa_
FNDA:0,_RNCINvMs1_NtNtCsjTLMFSz4sfV_13nethsm_pkcs117backend5loginNtB8_8LoginCtx4try_NCNCNvNtBa_3key18upload_certificate00NtNtNtCsk2ORzXQUL6f_13nethsm_sdk_rs4apis11default_api21KeysKeyIdCertPutErrorINtB1R_15ResponseContentuENCNCB1e_00E0Bc_
FNDA:0,_RNCNvNtNtCsjTLMFSz4sfV_13nethsm_pkcs117backend5login19get_user_api_config0B7_
FNDA:0,_RINvMs1_NtNtCsjTLMFSz4sfV_13nethsm_pkcs117backend5loginNtB6_8LoginCtx4try_NCNvNtNtBa_3api5token13C_GetSlotInfos_0NtNtNtCsk2ORzXQUL6f_13nethsm_sdk_rs4apis11default_api19HealthStateGetErrorINtB1R_15ResponseContentNtNtNtB1T_6models17health_state_data15HealthStateDataENCNCB1c_s_00EBa_
FNDA:0,_RINvMs1_NtNtCsjTLMFSz4sfV_13nethsm_pkcs117backend5loginNtB6_8LoginCtx4try_NCNvNtNtBa_3api5token14C_GetTokenInfo0NtNtNtCsk2ORzXQUL6f_13nethsm_sdk_rs4apis11default_api12InfoGetErrorINtB1Q_15ResponseContentNtNtNtB1S_6models9info_data8InfoDataENCNCB1c_00EBa_
FNDA:0,_RNCNvNtNtCsjTLMFSz4sfV_13nethsm_pkcs117backend5login23get_current_user_status0B7_
FNDA:0,_RNCNvMs1_NtNtCsjTLMFSz4sfV_13nethsm_pkcs117backend5loginNtB7_8LoginCtx8operator0Bb_
FNDA:0,_RNvXs9_NtNtCsjTLMFSz4sfV_13nethsm_pkcs117backend5loginNtB5_8UserModeNtNtCskl7yHyHAUN_4core3cmp9PartialEq2eqB9_
FNDA:0,_RNvXs2_NtNtCsjTLMFSz4sfV_13nethsm_pkcs117backend5loginNtB5_8LoginCtxNtNtCskl7yHyHAUN_4core3fmt5Debug3fmt
FNDA:0,_RNvXsa_NtNtCsjTLMFSz4sfV_13nethsm_pkcs117backend5loginNtB5_10UserStatusNtNtCskl7yHyHAUN_4core5clone5Clone5cloneB9_
FNDA:0,_RNvXs5_NtNtCsjTLMFSz4sfV_13nethsm_pkcs117backend5loginNtB5_10LoginErrorNtNtCskl7yHyHAUN_4core5clone5Clone5cloneB9_
FNDA:0,_RNvXs6_NtNtCsjTLMFSz4sfV_13nethsm_pkcs117backend5loginNtB5_8UserModeNtNtCskl7yHyHAUN_4core5clone5Clone5cloneB9_
FNDA:0,_RNvXs_NtNtCsjTLMFSz4sfV_13nethsm_pkcs117backend5loginNtB6_5ErrorINtNtCskl7yHyHAUN_4core7convert4FromNtB4_10LoginErrorE4from
FNDA:0,_RNvMs1_NtNtCsjTLMFSz4sfV_13nethsm_pkcs117backend5loginNtB5_8LoginCtx10change_pin
FNDA:0,_RNvMs1_NtNtCsjTLMFSz4sfV_13nethsm_pkcs117backend5loginNtB5_8LoginCtx13administrator
FNDA:0,_RNvMs1_NtNtCsjTLMFSz4sfV_13nethsm_pkcs117backend5loginNtB5_8LoginCtx6logout
FNDA:0,_RNvXsb_NtNtCsjTLMFSz4sfV_13nethsm_pkcs117backend5loginNtB5_10UserStatusNtNtCskl7yHyHAUN_4core3fmt5Debug3fmt
FNDA:0,_RNvMs1_NtNtCsjTLMFSz4sfV_13nethsm_pkcs117backend5loginNtB5_8LoginCtx25operator_or_administrator
FNDA:0,_RNvXs7_NtNtCsjTLMFSz4sfV_13nethsm_pkcs117backend5loginNtB5_8UserModeNtNtCskl7yHyHAUN_4core3fmt5Debug3fmt
FNDA:0,_RNvXs0_NtNtCsjTLMFSz4sfV_13nethsm_pkcs117backend5loginNtB5_10LoginErrorNtNtCskl7yHyHAUN_4core3fmt7Display3fmt
FNDA:0,_RNvMs1_NtNtCsjTLMFSz4sfV_13nethsm_pkcs117backend5loginNtB5_8LoginCtx8operator
FNDA:0,_RNvMs1_NtNtCsjTLMFSz4sfV_13nethsm_pkcs117backend5loginNtB5_8LoginCtx5guest
FNDA:0,_RNvXNtNtCsjTLMFSz4sfV_13nethsm_pkcs117backend5loginyINtNtCskl7yHyHAUN_4core7convert4FromNtB2_10LoginErrorE4from
FNDA:0,_RNvMs1_NtNtCsjTLMFSz4sfV_13nethsm_pkcs117backend5loginNtB5_8LoginCtx3new
FNDA:0,_RNvXs3_NtNtCsjTLMFSz4sfV_13nethsm_pkcs117backend5loginNtB5_8LoginCtxNtNtCskl7yHyHAUN_4core5clone5Clone5cloneB9_
FNDA:0,_RNvMs1_NtNtCsjTLMFSz4sfV_13nethsm_pkcs117backend5loginNtB5_8LoginCtx12can_run_mode
FNDA:0,_RNvMs1_NtNtCsjTLMFSz4sfV_13nethsm_pkcs117backend5loginNtB5_8LoginCtx5login
FNDA:3,_RNvNtNtCsjTLMFSz4sfV_13nethsm_pkcs117backend5login13user_is_valid
FNDA:0,_RNvMs1_NtNtCsjTLMFSz4sfV_13nethsm_pkcs117backend5loginNtB5_8LoginCtx20get_config_user_mode
FNDA:0,_RNvMs1_NtNtCsjTLMFSz4sfV_13nethsm_pkcs117backend5loginNtB5_8LoginCtx13next_instance
FNDA:0,_RNvNtNtCsjTLMFSz4sfV_13nethsm_pkcs117backend5login23get_current_user_status
FNDA:0,_RNvMs1_NtNtCsjTLMFSz4sfV_13nethsm_pkcs117backend5loginNtB5_8LoginCtx8ck_state
FNDA:0,_RNvNtNtCsjTLMFSz4sfV_13nethsm_pkcs117backend5login19get_user_api_config
FNDA:0,_RNvXs4_NtNtCsjTLMFSz4sfV_13nethsm_pkcs117backend5loginNtB5_10LoginErrorNtNtCskl7yHyHAUN_4core3fmt5Debug3fmt
FNDA:0,_RNvXsd_NtNtCsjTLMFSz4sfV_13nethsm_pkcs117backend5loginNtB5_10UserStatusNtNtCskl7yHyHAUN_4core3cmp9PartialEq2eqB9_
FNDA:1,_RNCNvNtNtNtCsjTLMFSz4sfV_13nethsm_pkcs117backend5login4test18test_user_is_valid0B9_
FNF:41
FNH:27
DA:17,110
DA:26,0
DA:35,0
DA:36,0
DA:37,0
DA:38,0
DA:39,0
DA:40,0
DA:42,0
DA:46,0
DA:47,0
DA:48,0
DA:52,0
DA:53,0
DA:54,0
DA:55,0
DA:56,0
DA:57,0
DA:59,0
DA:63,125
DA:64,125
DA:65,125
DA:66,125
DA:67,125
DA:68,125
DA:69,0
DA:73,125
DA:74,125
DA:75,125
DA:76,125
DA:78,125
DA:79,42
DA:80,83
DA:81,41
DA:82,42
DA:83,0
DA:85,125
DA:86,125
DA:87,125
DA:88,125
DA:89,125
DA:90,125
DA:91,125
DA:92,125
DA:94,13
DA:95,0
DA:97,13
DA:98,0
DA:100,0
DA:102,10
DA:103,0
DA:104,10
DA:105,10
DA:106,10
DA:107,10
DA:108,10
DA:109,10
DA:112,3
DA:113,0
DA:114,3
DA:115,3
DA:116,3
DA:117,3
DA:118,3
DA:119,3
DA:121,0
DA:124,0
DA:126,13
DA:128,25
DA:129,13
DA:130,3
DA:131,10
DA:132,0
DA:134,13
DA:136,0
DA:137,0
DA:139,13
DA:141,282
DA:142,282
DA:143,282
DA:144,282
DA:146,94
DA:147,94
DA:148,94
DA:149,94
DA:151,63
DA:152,63
DA:153,63
DA:154,63
DA:156,52
DA:157,52
DA:158,52
DA:160,125
DA:161,125
DA:162,125
DA:164,145
DA:165,145
DA:166,0
DA:167,0
DA:168,145
DA:169,145
DA:170,145
DA:171,145
DA:172,145
DA:173,39
DA:174,53
DA:175,0
DA:177,53
DA:180,145
DA:182,0
DA:183,0
DA:184,0
DA:186,269
DA:187,269
DA:188,39
DA:189,53
DA:190,125
DA:191,52
DA:193,269
DA:196,269
DA:197,269
DA:198,269
DA:199,269
DA:200,269
DA:201,269
DA:202,269
DA:203,269
DA:204,269
DA:206,269
DA:207,269
DA:208,269
DA:209,0
DA:212,269
DA:213,648
DA:214,269
DA:240,0
DA:243,0
DA:246,0
DA:247,269
DA:249,4
DA:250,4
DA:251,4
DA:252,1
DA:253,1
DA:255,0
DA:256,0
DA:257,0
DA:260,0
DA:263,1
DA:264,1
DA:265,0
DA:268,1
DA:270,0
DA:273,1
DA:274,1
DA:275,1
DA:276,1
DA:277,1
DA:278,1
DA:279,1
DA:280,1
DA:281,1
DA:282,1
DA:283,1
DA:284,1
DA:285,0
DA:286,0
DA:287,0
DA:290,1
DA:293,0
DA:301,13
DA:308,13
DA:309,13
DA:310,13
DA:311,13
DA:312,13
DA:313,0
DA:316,13
DA:317,0
DA:318,13
DA:320,25
DA:321,13
DA:322,0
DA:323,0
DA:324,0
DA:328,13
DA:329,3
DA:330,10
DA:331,0
DA:333,13
DA:335,365
DA:336,365
DA:337,365
DA:338,365
DA:339,365
DA:340,240
DA:341,240
DA:342,0
DA:344,240
DA:345,240
DA:346,240
DA:347,240
DA:349,365
DA:350,365
DA:352,148
DA:353,148
DA:354,148
DA:355,147
DA:356,147
DA:357,147
DA:358,147
DA:359,147
DA:360,147
DA:361,148
DA:362,148
DA:363,148
DA:368,1
DA:369,1
DA:370,1
DA:371,1
DA:372,1
DA:373,1
DA:374,1
DA:375,1
DA:376,1
DA:377,1
DA:378,1
DA:379,1
DA:380,1
DA:381,1
DA:382,1
BRF:0
BRH:0
LF:247
LH:183
end_of_record
SF:/home/sautax/git/nethsm-pkcs11/pkcs11/src/backend/mechanism.rs
FN:37,_RINvMs1_NtNtCsggOPaNFMSYu_13nethsm_pkcs117backend9mechanismNtB6_14CkRawMechanism6paramsNtCscCAUJ6baoMA_12cryptoki_sys22ck_rsa_pkcs_pss_paramsEBa_
FN:37,_RINvMs1_NtNtCsggOPaNFMSYu_13nethsm_pkcs117backend9mechanismNtB6_14CkRawMechanism6paramsNtCscCAUJ6baoMA_12cryptoki_sys23ck_rsa_pkcs_oaep_paramsEBa_
FN:37,_RINvMs1_NtNtCsggOPaNFMSYu_13nethsm_pkcs117backend9mechanismNtB6_14CkRawMechanism6paramsAhj10_EBa_
FN:272,_RNvMs4_NtNtCsggOPaNFMSYu_13nethsm_pkcs117backend9mechanismNtB5_9Mechanism15from_ckraw_mech
FN:10,_RNvXs5_NtNtCsggOPaNFMSYu_13nethsm_pkcs117backend9mechanismNtB5_10CkRawErrorNtNtCskl7yHyHAUN_4core3fmt5Debug3fmt
FN:107,_RNvXsg_NtNtCsggOPaNFMSYu_13nethsm_pkcs117backend9mechanismNtB5_9MechanismNtNtCskl7yHyHAUN_4core3cmp9PartialEq2eqB9_
FN:70,_RNvXsa_NtNtCsggOPaNFMSYu_13nethsm_pkcs117backend9mechanismNtB5_10MechDigestNtNtCskl7yHyHAUN_4core3fmt5Debug3fmt
FN:341,_RNvMs4_NtNtCsggOPaNFMSYu_13nethsm_pkcs117backend9mechanismNtB5_9Mechanism7ck_info
FN:435,_RNvMs4_NtNtCsggOPaNFMSYu_13nethsm_pkcs117backend9mechanismNtB5_9Mechanism12decrypt_name
FN:107,_RNvXse_NtNtCsggOPaNFMSYu_13nethsm_pkcs117backend9mechanismNtB5_9MechanismNtNtCskl7yHyHAUN_4core3fmt5Debug3fmt
FN:30,_RNvMs1_NtNtCsggOPaNFMSYu_13nethsm_pkcs117backend9mechanismNtB5_14CkRawMechanism5type_
FN:232,_RNvMs4_NtNtCsggOPaNFMSYu_13nethsm_pkcs117backend9mechanismNtB5_9Mechanism11to_api_mech
FN:70,_RNvXs8_NtNtCsggOPaNFMSYu_13nethsm_pkcs117backend9mechanismNtB5_10MechDigestNtNtCskl7yHyHAUN_4core5clone5Clone5cloneB9_
FN:70,_RNvXsc_NtNtCsggOPaNFMSYu_13nethsm_pkcs117backend9mechanismNtB5_10MechDigestNtNtCskl7yHyHAUN_4core3cmp9PartialEq2eqB9_
FN:368,_RNvMs4_NtNtCsggOPaNFMSYu_13nethsm_pkcs117backend9mechanismNtB5_9Mechanism8ck_flags
FN:489,_RNvMs4_NtNtCsggOPaNFMSYu_13nethsm_pkcs117backend9mechanismNtB5_9Mechanism18get_signature_size
FN:161,_RNvMs4_NtNtCsggOPaNFMSYu_13nethsm_pkcs117backend9mechanismNtB5_9Mechanism11to_key_type
FN:48,_RNvMs1_NtNtCsggOPaNFMSYu_13nethsm_pkcs117backend9mechanismNtB5_14CkRawMechanism3len
FN:321,_RNvMs4_NtNtCsggOPaNFMSYu_13nethsm_pkcs117backend9mechanismNtB5_9Mechanism7ck_type
FN:427,_RNvMs4_NtNtCsggOPaNFMSYu_13nethsm_pkcs117backend9mechanismNtB5_9Mechanism12encrypt_name
FN:26,_RNvMs1_NtNtCsggOPaNFMSYu_13nethsm_pkcs117backend9mechanismNtB5_14CkRawMechanism22from_raw_ptr_unchecked
FN:61,_RNvXs2_NtNtCsggOPaNFMSYu_13nethsm_pkcs117backend9mechanismNtB5_5ErrorNtNtCskl7yHyHAUN_4core3fmt7Display3fmt
FN:200,_RNvMs4_NtNtCsggOPaNFMSYu_13nethsm_pkcs117backend9mechanismNtB5_9Mechanism26get_all_possible_api_mechs
FN:362,_RNvMs4_NtNtCsggOPaNFMSYu_13nethsm_pkcs117backend9mechanismNtB5_9Mechanism2iv
FN:453,_RNvMs4_NtNtCsggOPaNFMSYu_13nethsm_pkcs117backend9mechanismNtB5_9Mechanism12get_key_size
FN:470,_RNvMs4_NtNtCsggOPaNFMSYu_13nethsm_pkcs117backend9mechanismNtB5_9Mechanism14get_input_size
FN:145,_RNvMs4_NtNtCsggOPaNFMSYu_13nethsm_pkcs117backend9mechanismNtB5_9Mechanism13from_key_type
FN:92,_RNvMs3_NtNtCsggOPaNFMSYu_13nethsm_pkcs117backend9mechanismNtB5_10MechDigest12from_ck_mech
FN:410,_RNvMs4_NtNtCsggOPaNFMSYu_13nethsm_pkcs117backend9mechanismNtB5_9Mechanism9sign_name
FN:107,_RNvXsd_NtNtCsggOPaNFMSYu_13nethsm_pkcs117backend9mechanismNtB5_9MechanismNtNtCskl7yHyHAUN_4core5clone5Clone5cloneB9_
FN:124,_RNvXsi_NtNtCsggOPaNFMSYu_13nethsm_pkcs117backend9mechanismNtB5_8MechModeNtNtCskl7yHyHAUN_4core3fmt5Debug3fmt
FN:53,_RNvXs7_NtNtCsggOPaNFMSYu_13nethsm_pkcs117backend9mechanismNtB5_5ErrorNtNtCskl7yHyHAUN_4core3fmt5Debug3fmt
FN:175,_RNvMs4_NtNtCsggOPaNFMSYu_13nethsm_pkcs117backend9mechanismNtB5_9Mechanism13from_api_mech
FN:16,_RNvXs6_NtNtCsggOPaNFMSYu_13nethsm_pkcs117backend9mechanismNtB5_14CkRawMechanismNtNtCskl7yHyHAUN_4core3fmt5Debug3fmt
FN:124,_RNvXsh_NtNtCsggOPaNFMSYu_13nethsm_pkcs117backend9mechanismNtB5_8MechModeNtNtCskl7yHyHAUN_4core5clone5Clone5cloneB9_
FN:82,_RNvMs3_NtNtCsggOPaNFMSYu_13nethsm_pkcs117backend9mechanismNtB5_10MechDigest7ck_type
FN:82,_RNvMs3_NtNtCsjTLMFSz4sfV_13nethsm_pkcs117backend9mechanismNtB5_10MechDigest7ck_type
FN:16,_RNvXs6_NtNtCsjTLMFSz4sfV_13nethsm_pkcs117backend9mechanismNtB5_14CkRawMechanismNtNtCskl7yHyHAUN_4core3fmt5Debug3fmt
FN:53,_RNvXs7_NtNtCsjTLMFSz4sfV_13nethsm_pkcs117backend9mechanismNtB5_5ErrorNtNtCskl7yHyHAUN_4core3fmt5Debug3fmt
FN:175,_RNvMs4_NtNtCsjTLMFSz4sfV_13nethsm_pkcs117backend9mechanismNtB5_9Mechanism13from_api_mech
FN:124,_RNvXsh_NtNtCsjTLMFSz4sfV_13nethsm_pkcs117backend9mechanismNtB5_8MechModeNtNtCskl7yHyHAUN_4core5clone5Clone5cloneB9_
FN:37,_RINvMs1_NtNtCsjTLMFSz4sfV_13nethsm_pkcs117backend9mechanismNtB6_14CkRawMechanism6paramsAhj10_EBa_
FN:37,_RINvMs1_NtNtCsjTLMFSz4sfV_13nethsm_pkcs117backend9mechanismNtB6_14CkRawMechanism6paramsNtCscCAUJ6baoMA_12cryptoki_sys22ck_rsa_pkcs_pss_paramsEBa_
FN:37,_RINvMs1_NtNtCsjTLMFSz4sfV_13nethsm_pkcs117backend9mechanismNtB6_14CkRawMechanism6paramsNtCscCAUJ6baoMA_12cryptoki_sys23ck_rsa_pkcs_oaep_paramsEBa_
FN:272,_RNvMs4_NtNtCsjTLMFSz4sfV_13nethsm_pkcs117backend9mechanismNtB5_9Mechanism15from_ckraw_mech
FN:341,_RNvMs4_NtNtCsjTLMFSz4sfV_13nethsm_pkcs117backend9mechanismNtB5_9Mechanism7ck_info
FN:435,_RNvMs4_NtNtCsjTLMFSz4sfV_13nethsm_pkcs117backend9mechanismNtB5_9Mechanism12decrypt_name
FN:30,_RNvMs1_NtNtCsjTLMFSz4sfV_13nethsm_pkcs117backend9mechanismNtB5_14CkRawMechanism5type_
FN:232,_RNvMs4_NtNtCsjTLMFSz4sfV_13nethsm_pkcs117backend9mechanismNtB5_9Mechanism11to_api_mech
FN:368,_RNvMs4_NtNtCsjTLMFSz4sfV_13nethsm_pkcs117backend9mechanismNtB5_9Mechanism8ck_flags
FN:489,_RNvMs4_NtNtCsjTLMFSz4sfV_13nethsm_pkcs117backend9mechanismNtB5_9Mechanism18get_signature_size
FN:161,_RNvMs4_NtNtCsjTLMFSz4sfV_13nethsm_pkcs117backend9mechanismNtB5_9Mechanism11to_key_type
FN:48,_RNvMs1_NtNtCsjTLMFSz4sfV_13nethsm_pkcs117backend9mechanismNtB5_14CkRawMechanism3len
FN:321,_RNvMs4_NtNtCsjTLMFSz4sfV_13nethsm_pkcs117backend9mechanismNtB5_9Mechanism7ck_type
FN:427,_RNvMs4_NtNtCsjTLMFSz4sfV_13nethsm_pkcs117backend9mechanismNtB5_9Mechanism12encrypt_name
FN:26,_RNvMs1_NtNtCsjTLMFSz4sfV_13nethsm_pkcs117backend9mechanismNtB5_14CkRawMechanism22from_raw_ptr_unchecked
FN:61,_RNvXs2_NtNtCsjTLMFSz4sfV_13nethsm_pkcs117backend9mechanismNtB5_5ErrorNtNtCskl7yHyHAUN_4core3fmt7Display3fmt
FN:200,_RNvMs4_NtNtCsjTLMFSz4sfV_13nethsm_pkcs117backend9mechanismNtB5_9Mechanism26get_all_possible_api_mechs
FN:362,_RNvMs4_NtNtCsjTLMFSz4sfV_13nethsm_pkcs117backend9mechanismNtB5_9Mechanism2iv
FN:453,_RNvMs4_NtNtCsjTLMFSz4sfV_13nethsm_pkcs117backend9mechanismNtB5_9Mechanism12get_key_size
FN:10,_RNvXs5_NtNtCsjTLMFSz4sfV_13nethsm_pkcs117backend9mechanismNtB5_10CkRawErrorNtNtCskl7yHyHAUN_4core3fmt5Debug3fmt
FN:124,_RNvXsi_NtNtCsjTLMFSz4sfV_13nethsm_pkcs117backend9mechanismNtB5_8MechModeNtNtCskl7yHyHAUN_4core3fmt5Debug3fmt
FN:107,_RNvXsd_NtNtCsjTLMFSz4sfV_13nethsm_pkcs117backend9mechanismNtB5_9MechanismNtNtCskl7yHyHAUN_4core5clone5Clone5cloneB9_
FN:470,_RNvMs4_NtNtCsjTLMFSz4sfV_13nethsm_pkcs117backend9mechanismNtB5_9Mechanism14get_input_size
FN:145,_RNvMs4_NtNtCsjTLMFSz4sfV_13nethsm_pkcs117backend9mechanismNtB5_9Mechanism13from_key_type
FN:92,_RNvMs3_NtNtCsjTLMFSz4sfV_13nethsm_pkcs117backend9mechanismNtB5_10MechDigest12from_ck_mech
FN:410,_RNvMs4_NtNtCsjTLMFSz4sfV_13nethsm_pkcs117backend9mechanismNtB5_9Mechanism9sign_name
FN:70,_RNvXs8_NtNtCsjTLMFSz4sfV_13nethsm_pkcs117backend9mechanismNtB5_10MechDigestNtNtCskl7yHyHAUN_4core5clone5Clone5cloneB9_
FN:70,_RNvXsc_NtNtCsjTLMFSz4sfV_13nethsm_pkcs117backend9mechanismNtB5_10MechDigestNtNtCskl7yHyHAUN_4core3cmp9PartialEq2eqB9_
FN:107,_RNvXse_NtNtCsjTLMFSz4sfV_13nethsm_pkcs117backend9mechanismNtB5_9MechanismNtNtCskl7yHyHAUN_4core3fmt5Debug3fmt
FN:107,_RNvXsg_NtNtCsjTLMFSz4sfV_13nethsm_pkcs117backend9mechanismNtB5_9MechanismNtNtCskl7yHyHAUN_4core3cmp9PartialEq2eqB9_
FN:70,_RNvXsa_NtNtCsjTLMFSz4sfV_13nethsm_pkcs117backend9mechanismNtB5_10MechDigestNtNtCskl7yHyHAUN_4core3fmt5Debug3fmt
FNDA:2,_RINvMs1_NtNtCsggOPaNFMSYu_13nethsm_pkcs117backend9mechanismNtB6_14CkRawMechanism6paramsNtCscCAUJ6baoMA_12cryptoki_sys22ck_rsa_pkcs_pss_paramsEBa_
FNDA:3,_RINvMs1_NtNtCsggOPaNFMSYu_13nethsm_pkcs117backend9mechanismNtB6_14CkRawMechanism6paramsNtCscCAUJ6baoMA_12cryptoki_sys23ck_rsa_pkcs_oaep_paramsEBa_
FNDA:2,_RINvMs1_NtNtCsggOPaNFMSYu_13nethsm_pkcs117backend9mechanismNtB6_14CkRawMechanism6paramsAhj10_EBa_
FNDA:45,_RNvMs4_NtNtCsggOPaNFMSYu_13nethsm_pkcs117backend9mechanismNtB5_9Mechanism15from_ckraw_mech
FNDA:0,_RNvXs5_NtNtCsggOPaNFMSYu_13nethsm_pkcs117backend9mechanismNtB5_10CkRawErrorNtNtCskl7yHyHAUN_4core3fmt5Debug3fmt
FNDA:40,_RNvXsg_NtNtCsggOPaNFMSYu_13nethsm_pkcs117backend9mechanismNtB5_9MechanismNtNtCskl7yHyHAUN_4core3cmp9PartialEq2eqB9_
FNDA:0,_RNvXsa_NtNtCsggOPaNFMSYu_13nethsm_pkcs117backend9mechanismNtB5_10MechDigestNtNtCskl7yHyHAUN_4core3fmt5Debug3fmt
FNDA:120,_RNvMs4_NtNtCsggOPaNFMSYu_13nethsm_pkcs117backend9mechanismNtB5_9Mechanism7ck_info
FNDA:12,_RNvMs4_NtNtCsggOPaNFMSYu_13nethsm_pkcs117backend9mechanismNtB5_9Mechanism12decrypt_name
FNDA:1,_RNvXse_NtNtCsggOPaNFMSYu_13nethsm_pkcs117backend9mechanismNtB5_9MechanismNtNtCskl7yHyHAUN_4core3fmt5Debug3fmt
FNDA:49,_RNvMs1_NtNtCsggOPaNFMSYu_13nethsm_pkcs117backend9mechanismNtB5_14CkRawMechanism5type_
FNDA:36,_RNvMs4_NtNtCsggOPaNFMSYu_13nethsm_pkcs117backend9mechanismNtB5_9Mechanism11to_api_mech
FNDA:11,_RNvXs8_NtNtCsggOPaNFMSYu_13nethsm_pkcs117backend9mechanismNtB5_10MechDigestNtNtCskl7yHyHAUN_4core5clone5Clone5cloneB9_
FNDA:0,_RNvXsc_NtNtCsggOPaNFMSYu_13nethsm_pkcs117backend9mechanismNtB5_10MechDigestNtNtCskl7yHyHAUN_4core3cmp9PartialEq2eqB9_
FNDA:120,_RNvMs4_NtNtCsggOPaNFMSYu_13nethsm_pkcs117backend9mechanismNtB5_9Mechanism8ck_flags
FNDA:22,_RNvMs4_NtNtCsggOPaNFMSYu_13nethsm_pkcs117backend9mechanismNtB5_9Mechanism18get_signature_size
FNDA:7,_RNvMs4_NtNtCsggOPaNFMSYu_13nethsm_pkcs117backend9mechanismNtB5_9Mechanism11to_key_type
FNDA:0,_RNvMs1_NtNtCsggOPaNFMSYu_13nethsm_pkcs117backend9mechanismNtB5_14CkRawMechanism3len
FNDA:900,_RNvMs4_NtNtCsggOPaNFMSYu_13nethsm_pkcs117backend9mechanismNtB5_9Mechanism7ck_type
FNDA:1,_RNvMs4_NtNtCsggOPaNFMSYu_13nethsm_pkcs117backend9mechanismNtB5_9Mechanism12encrypt_name
FNDA:45,_RNvMs1_NtNtCsggOPaNFMSYu_13nethsm_pkcs117backend9mechanismNtB5_14CkRawMechanism22from_raw_ptr_unchecked
FNDA:4,_RNvXs2_NtNtCsggOPaNFMSYu_13nethsm_pkcs117backend9mechanismNtB5_5ErrorNtNtCskl7yHyHAUN_4core3fmt7Display3fmt
FNDA:7,_RNvMs4_NtNtCsggOPaNFMSYu_13nethsm_pkcs117backend9mechanismNtB5_9Mechanism26get_all_possible_api_mechs
FNDA:2,_RNvMs4_NtNtCsggOPaNFMSYu_13nethsm_pkcs117backend9mechanismNtB5_9Mechanism2iv
FNDA:31,_RNvMs4_NtNtCsggOPaNFMSYu_13nethsm_pkcs117backend9mechanismNtB5_9Mechanism12get_key_size
FNDA:9,_RNvMs4_NtNtCsggOPaNFMSYu_13nethsm_pkcs117backend9mechanismNtB5_9Mechanism14get_input_size
FNDA:4,_RNvMs4_NtNtCsggOPaNFMSYu_13nethsm_pkcs117backend9mechanismNtB5_9Mechanism13from_key_type
FNDA:5,_RNvMs3_NtNtCsggOPaNFMSYu_13nethsm_pkcs117backend9mechanismNtB5_10MechDigest12from_ck_mech
FNDA:21,_RNvMs4_NtNtCsggOPaNFMSYu_13nethsm_pkcs117backend9mechanismNtB5_9Mechanism9sign_name
FNDA:60,_RNvXsd_NtNtCsggOPaNFMSYu_13nethsm_pkcs117backend9mechanismNtB5_9MechanismNtNtCskl7yHyHAUN_4core5clone5Clone5cloneB9_
FNDA:1,_RNvXsi_NtNtCsggOPaNFMSYu_13nethsm_pkcs117backend9mechanismNtB5_8MechModeNtNtCskl7yHyHAUN_4core3fmt5Debug3fmt
FNDA:0,_RNvXs7_NtNtCsggOPaNFMSYu_13nethsm_pkcs117backend9mechanismNtB5_5ErrorNtNtCskl7yHyHAUN_4core3fmt5Debug3fmt
FNDA:0,_RNvMs4_NtNtCsggOPaNFMSYu_13nethsm_pkcs117backend9mechanismNtB5_9Mechanism13from_api_mech
FNDA:0,_RNvXs6_NtNtCsggOPaNFMSYu_13nethsm_pkcs117backend9mechanismNtB5_14CkRawMechanismNtNtCskl7yHyHAUN_4core3fmt5Debug3fmt
FNDA:0,_RNvXsh_NtNtCsggOPaNFMSYu_13nethsm_pkcs117backend9mechanismNtB5_8MechModeNtNtCskl7yHyHAUN_4core5clone5Clone5cloneB9_
FNDA:0,_RNvMs3_NtNtCsggOPaNFMSYu_13nethsm_pkcs117backend9mechanismNtB5_10MechDigest7ck_type
FNDA:0,_RNvMs3_NtNtCsjTLMFSz4sfV_13nethsm_pkcs117backend9mechanismNtB5_10MechDigest7ck_type
FNDA:0,_RNvXs6_NtNtCsjTLMFSz4sfV_13nethsm_pkcs117backend9mechanismNtB5_14CkRawMechanismNtNtCskl7yHyHAUN_4core3fmt5Debug3fmt
FNDA:0,_RNvXs7_NtNtCsjTLMFSz4sfV_13nethsm_pkcs117backend9mechanismNtB5_5ErrorNtNtCskl7yHyHAUN_4core3fmt5Debug3fmt
FNDA:0,_RNvMs4_NtNtCsjTLMFSz4sfV_13nethsm_pkcs117backend9mechanismNtB5_9Mechanism13from_api_mech
FNDA:0,_RNvXsh_NtNtCsjTLMFSz4sfV_13nethsm_pkcs117backend9mechanismNtB5_8MechModeNtNtCskl7yHyHAUN_4core5clone5Clone5cloneB9_
FNDA:0,_RINvMs1_NtNtCsjTLMFSz4sfV_13nethsm_pkcs117backend9mechanismNtB6_14CkRawMechanism6paramsAhj10_EBa_
FNDA:0,_RINvMs1_NtNtCsjTLMFSz4sfV_13nethsm_pkcs117backend9mechanismNtB6_14CkRawMechanism6paramsNtCscCAUJ6baoMA_12cryptoki_sys22ck_rsa_pkcs_pss_paramsEBa_
FNDA:0,_RINvMs1_NtNtCsjTLMFSz4sfV_13nethsm_pkcs117backend9mechanismNtB6_14CkRawMechanism6paramsNtCscCAUJ6baoMA_12cryptoki_sys23ck_rsa_pkcs_oaep_paramsEBa_
FNDA:0,_RNvMs4_NtNtCsjTLMFSz4sfV_13nethsm_pkcs117backend9mechanismNtB5_9Mechanism15from_ckraw_mech
FNDA:0,_RNvMs4_NtNtCsjTLMFSz4sfV_13nethsm_pkcs117backend9mechanismNtB5_9Mechanism7ck_info
FNDA:0,_RNvMs4_NtNtCsjTLMFSz4sfV_13nethsm_pkcs117backend9mechanismNtB5_9Mechanism12decrypt_name
FNDA:0,_RNvMs1_NtNtCsjTLMFSz4sfV_13nethsm_pkcs117backend9mechanismNtB5_14CkRawMechanism5type_
FNDA:0,_RNvMs4_NtNtCsjTLMFSz4sfV_13nethsm_pkcs117backend9mechanismNtB5_9Mechanism11to_api_mech
FNDA:0,_RNvMs4_NtNtCsjTLMFSz4sfV_13nethsm_pkcs117backend9mechanismNtB5_9Mechanism8ck_flags
FNDA:0,_RNvMs4_NtNtCsjTLMFSz4sfV_13nethsm_pkcs117backend9mechanismNtB5_9Mechanism18get_signature_size
FNDA:0,_RNvMs4_NtNtCsjTLMFSz4sfV_13nethsm_pkcs117backend9mechanismNtB5_9Mechanism11to_key_type
FNDA:0,_RNvMs1_NtNtCsjTLMFSz4sfV_13nethsm_pkcs117backend9mechanismNtB5_14CkRawMechanism3len
FNDA:0,_RNvMs4_NtNtCsjTLMFSz4sfV_13nethsm_pkcs117backend9mechanismNtB5_9Mechanism7ck_type
FNDA:0,_RNvMs4_NtNtCsjTLMFSz4sfV_13nethsm_pkcs117backend9mechanismNtB5_9Mechanism12encrypt_name
FNDA:0,_RNvMs1_NtNtCsjTLMFSz4sfV_13nethsm_pkcs117backend9mechanismNtB5_14CkRawMechanism22from_raw_ptr_unchecked
FNDA:0,_RNvXs2_NtNtCsjTLMFSz4sfV_13nethsm_pkcs117backend9mechanismNtB5_5ErrorNtNtCskl7yHyHAUN_4core3fmt7Display3fmt
FNDA:0,_RNvMs4_NtNtCsjTLMFSz4sfV_13nethsm_pkcs117backend9mechanismNtB5_9Mechanism26get_all_possible_api_mechs
FNDA:0,_RNvMs4_NtNtCsjTLMFSz4sfV_13nethsm_pkcs117backend9mechanismNtB5_9Mechanism2iv
FNDA:0,_RNvMs4_NtNtCsjTLMFSz4sfV_13nethsm_pkcs117backend9mechanismNtB5_9Mechanism12get_key_size
FNDA:0,_RNvXs5_NtNtCsjTLMFSz4sfV_13nethsm_pkcs117backend9mechanismNtB5_10CkRawErrorNtNtCskl7yHyHAUN_4core3fmt5Debug3fmt
FNDA:0,_RNvXsi_NtNtCsjTLMFSz4sfV_13nethsm_pkcs117backend9mechanismNtB5_8MechModeNtNtCskl7yHyHAUN_4core3fmt5Debug3fmt
FNDA:0,_RNvXsd_NtNtCsjTLMFSz4sfV_13nethsm_pkcs117backend9mechanismNtB5_9MechanismNtNtCskl7yHyHAUN_4core5clone5Clone5cloneB9_
FNDA:0,_RNvMs4_NtNtCsjTLMFSz4sfV_13nethsm_pkcs117backend9mechanismNtB5_9Mechanism14get_input_size
FNDA:0,_RNvMs4_NtNtCsjTLMFSz4sfV_13nethsm_pkcs117backend9mechanismNtB5_9Mechanism13from_key_type
FNDA:0,_RNvMs3_NtNtCsjTLMFSz4sfV_13nethsm_pkcs117backend9mechanismNtB5_10MechDigest12from_ck_mech
FNDA:0,_RNvMs4_NtNtCsjTLMFSz4sfV_13nethsm_pkcs117backend9mechanismNtB5_9Mechanism9sign_name
FNDA:0,_RNvXs8_NtNtCsjTLMFSz4sfV_13nethsm_pkcs117backend9mechanismNtB5_10MechDigestNtNtCskl7yHyHAUN_4core5clone5Clone5cloneB9_
FNDA:0,_RNvXsc_NtNtCsjTLMFSz4sfV_13nethsm_pkcs117backend9mechanismNtB5_10MechDigestNtNtCskl7yHyHAUN_4core3cmp9PartialEq2eqB9_
FNDA:0,_RNvXse_NtNtCsjTLMFSz4sfV_13nethsm_pkcs117backend9mechanismNtB5_9MechanismNtNtCskl7yHyHAUN_4core3fmt5Debug3fmt
FNDA:0,_RNvXsg_NtNtCsjTLMFSz4sfV_13nethsm_pkcs117backend9mechanismNtB5_9MechanismNtNtCskl7yHyHAUN_4core3cmp9PartialEq2eqB9_
FNDA:0,_RNvXsa_NtNtCsjTLMFSz4sfV_13nethsm_pkcs117backend9mechanismNtB5_10MechDigestNtNtCskl7yHyHAUN_4core3fmt5Debug3fmt
FNF:34
FNH:25
DA:10,0
DA:16,0
DA:26,45
DA:27,45
DA:28,45
DA:30,49
DA:31,49
DA:32,49
DA:37,7
DA:38,7
DA:39,7
DA:40,7
DA:41,0
DA:42,7
DA:43,7
DA:44,0
DA:45,7
DA:46,7
DA:47,7
DA:48,0
DA:49,0
DA:50,0
DA:53,0
DA:61,4
DA:62,4
DA:63,0
DA:64,4
DA:65,0
DA:67,4
DA:70,11
DA:82,0
DA:83,0
DA:84,0
DA:85,0
DA:86,0
DA:87,0
DA:88,0
DA:89,0
DA:91,0
DA:92,5
DA:93,5
DA:94,0
DA:95,2
DA:96,0
DA:97,2
DA:98,0
DA:99,1
DA:100,0
DA:102,5
DA:107,60
DA:124,1
DA:145,4
DA:146,4
DA:147,1
DA:148,0
DA:149,0
DA:150,0
DA:151,0
DA:152,0
DA:153,0
DA:155,2
DA:157,1
DA:159,4
DA:161,7
DA:162,7
DA:163,1
DA:168,1
DA:169,4
DA:170,1
DA:172,7
DA:175,0
DA:176,0
DA:177,0
DA:178,0
DA:179,0
DA:180,0
DA:181,0
DA:182,0
DA:183,0
DA:184,0
DA:185,0
DA:186,0
DA:187,0
DA:188,0
DA:189,0
DA:190,0
DA:191,0
DA:192,0
DA:193,0
DA:194,0
DA:196,0
DA:198,0
DA:200,7
DA:201,7
DA:202,1
DA:203,1
DA:204,1
DA:205,1
DA:210,1
DA:211,1
DA:212,1
DA:213,1
DA:214,1
DA:215,1
DA:216,1
DA:217,1
DA:218,1
DA:219,1
DA:220,1
DA:221,1
DA:222,1
DA:223,1
DA:224,1
DA:225,1
DA:226,1
DA:227,4
DA:228,1
DA:230,7
DA:232,36
DA:233,36
DA:234,21
DA:235,0
DA:236,8
DA:237,2
DA:238,0
DA:239,1
DA:240,0
DA:241,1
DA:242,0
DA:243,0
DA:245,0
DA:246,9
DA:247,2
DA:248,0
DA:249,0
DA:251,2
DA:252,2
DA:253,0
DA:255,13
DA:256,2
DA:257,4
DA:258,4
DA:259,3
DA:260,0
DA:261,1
DA:262,0
DA:263,1
DA:264,0
DA:265,1
DA:267,0
DA:270,36
DA:272,45
DA:273,45
DA:274,0
DA:275,1
DA:276,4
DA:277,0
DA:278,1
DA:280,2
DA:281,2
DA:283,2
DA:285,2
DA:287,12
DA:289,2
DA:290,2
DA:291,2
DA:293,2
DA:294,2
DA:295,2
DA:297,2
DA:298,2
DA:302,3
DA:303,3
DA:304,3
DA:307,3
DA:308,3
DA:312,5
DA:313,9
DA:314,2
DA:315,4
DA:318,41
DA:319,45
DA:321,900
DA:322,900
DA:323,130
DA:324,110
DA:326,100
DA:327,90
DA:329,120
DA:330,70
DA:331,80
DA:333,60
DA:334,50
DA:335,40
DA:336,30
DA:337,20
DA:339,900
DA:341,120
DA:342,120
DA:344,20
DA:346,40
DA:348,20
DA:349,10
DA:350,20
DA:351,10
DA:353,120
DA:354,120
DA:355,120
DA:356,120
DA:357,120
DA:358,120
DA:362,2
DA:363,2
DA:364,11
DA:366,13
DA:368,120
DA:369,120
DA:370,120
DA:371,120
DA:372,120
DA:374,10
DA:375,10
DA:376,10
DA:379,20
DA:380,20
DA:381,20
DA:386,20
DA:387,20
DA:388,20
DA:391,10
DA:394,10
DA:396,20
DA:397,20
DA:398,20
DA:399,20
DA:400,20
DA:402,10
DA:404,20
DA:407,120
DA:410,21
DA:411,21
DA:412,8
DA:413,2
DA:414,0
DA:415,1
DA:416,0
DA:417,1
DA:418,0
DA:419,0
DA:421,9
DA:422,1
DA:423,1
DA:425,21
DA:427,1
DA:428,1
DA:429,1
DA:430,0
DA:432,1
DA:435,12
DA:436,12
DA:437,1
DA:438,4
DA:439,4
DA:440,3
DA:441,0
DA:442,1
DA:443,0
DA:444,1
DA:445,0
DA:446,1
DA:448,0
DA:450,12
DA:453,31
DA:454,31
DA:455,10
DA:456,2
DA:458,18
DA:459,18
DA:460,4
DA:462,14
DA:465,1
DA:466,0
DA:468,31
DA:470,9
DA:471,9
DA:472,0
DA:473,0
DA:475,9
DA:476,9
DA:478,2
DA:480,7
DA:483,0
DA:484,0
DA:486,9
DA:489,22
DA:490,22
DA:491,22
DA:492,10
DA:493,2
DA:494,9
DA:495,1
DA:496,0
DA:498,22
BRF:0
BRH:0
LF:308
LH:224
end_of_record
SF:/home/sautax/git/nethsm-pkcs11/pkcs11/src/backend/mod.rs
FN:108,_RNvXs3_NtCsggOPaNFMSYu_13nethsm_pkcs117backendNtB5_5ErrorINtNtCskl7yHyHAUN_4core7convert4FromNtNtCsf2W9KFidpdm_5alloc6string13FromUtf8ErrorE4from
FN:58,_RNvXs9_NtCsggOPaNFMSYu_13nethsm_pkcs117backendNtB5_5ErrorNtNtCskl7yHyHAUN_4core3fmt5Debug3fmt
FN:30,_RNvXs6_NtCsggOPaNFMSYu_13nethsm_pkcs117backendNtB5_15ResponseContentNtNtCskl7yHyHAUN_4core3fmt5Debug3fmt
FN:96,_RNvXs1_NtCsggOPaNFMSYu_13nethsm_pkcs117backendNtB5_5ErrorINtNtCskl7yHyHAUN_4core7convert4FromNtNtCs3r5UF2JHC8q_6base646decode11DecodeErrorE4from
FN:114,_RNvXs4_NtCsggOPaNFMSYu_13nethsm_pkcs117backendyINtNtCskl7yHyHAUN_4core7convert4FromNtB5_5ErrorE4from
FN:36,_RNvXs8_NtCsggOPaNFMSYu_13nethsm_pkcs117backendNtB5_8ApiErrorNtNtCskl7yHyHAUN_4core3fmt5Debug3fmt
FN:102,_RNvXs2_NtCsggOPaNFMSYu_13nethsm_pkcs117backendNtB5_5ErrorINtNtCskl7yHyHAUN_4core7convert4FromNtNtCs6Z7f7eHmVo2_7openssl5error10ErrorStackE4from
FN:153,_RNvXs5_NtCsggOPaNFMSYu_13nethsm_pkcs117backendNtB5_5ErrorNtNtCskl7yHyHAUN_4core3fmt7Display3fmt
FN:90,_RNvXs0_NtCsggOPaNFMSYu_13nethsm_pkcs117backendNtB5_5ErrorINtNtCskl7yHyHAUN_4core7convert4FromINtNtCsk2ORzXQUL6f_13nethsm_sdk_rs4apis5ErrorNtNtB1w_11default_api30UsersUserIdPassphrasePostErrorEE4fromB7_
FN:45,_RNvXNtCsggOPaNFMSYu_13nethsm_pkcs117backendNtB2_8ApiErrorINtNtCskl7yHyHAUN_4core7convert4FromINtNtCsk2ORzXQUL6f_13nethsm_sdk_rs4apis5ErrorNtNtB1w_11default_api12InfoGetErrorEE4fromB4_
FN:45,_RNvXNtCsggOPaNFMSYu_13nethsm_pkcs117backendNtB2_8ApiErrorINtNtCskl7yHyHAUN_4core7convert4FromINtNtCsk2ORzXQUL6f_13nethsm_sdk_rs4apis5ErrorNtNtB1w_11default_api13KeysPostErrorEE4fromB4_
FN:45,_RNvXNtCsggOPaNFMSYu_13nethsm_pkcs117backendNtB2_8ApiErrorINtNtCskl7yHyHAUN_4core7convert4FromINtNtCsk2ORzXQUL6f_13nethsm_sdk_rs4apis5ErrorNtNtB1w_11default_api20KeysKeyIdDeleteErrorEE4fromB4_
FN:45,_RNvXNtCsggOPaNFMSYu_13nethsm_pkcs117backendNtB2_8ApiErrorINtNtCskl7yHyHAUN_4core7convert4FromINtNtCsk2ORzXQUL6f_13nethsm_sdk_rs4apis5ErrorNtNtB1w_11default_api21KeysKeyIdCertPutErrorEE4fromB4_
FN:90,_RNvXs0_NtCsggOPaNFMSYu_13nethsm_pkcs117backendNtB5_5ErrorINtNtCskl7yHyHAUN_4core7convert4FromINtNtCsk2ORzXQUL6f_13nethsm_sdk_rs4apis5ErrorNtNtB1w_11default_api21KeysKeyIdCertPutErrorEE4fromB7_
FN:45,_RNvXNtCsggOPaNFMSYu_13nethsm_pkcs117backendNtB2_8ApiErrorINtNtCskl7yHyHAUN_4core7convert4FromINtNtCsk2ORzXQUL6f_13nethsm_sdk_rs4apis5ErrorNtNtB1w_11default_api17KeysKeyIdGetErrorEE4fromB4_
FN:45,_RNvXNtCsggOPaNFMSYu_13nethsm_pkcs117backendNtB2_8ApiErrorINtNtCskl7yHyHAUN_4core7convert4FromINtNtCsk2ORzXQUL6f_13nethsm_sdk_rs4apis5ErrorNtNtB1w_11default_api12KeysGetErrorEE4fromB4_
FN:90,_RNvXs0_NtCsggOPaNFMSYu_13nethsm_pkcs117backendNtB5_5ErrorINtNtCskl7yHyHAUN_4core7convert4FromINtNtCsk2ORzXQUL6f_13nethsm_sdk_rs4apis5ErrorNtNtB1w_11default_api12InfoGetErrorEE4fromB7_
FN:90,_RNvXs0_NtCsggOPaNFMSYu_13nethsm_pkcs117backendNtB5_5ErrorINtNtCskl7yHyHAUN_4core7convert4FromINtNtCsk2ORzXQUL6f_13nethsm_sdk_rs4apis5ErrorNtNtB1w_11default_api13KeysPostErrorEE4fromB7_
FN:90,_RNvXs0_NtCsggOPaNFMSYu_13nethsm_pkcs117backendNtB5_5ErrorINtNtCskl7yHyHAUN_4core7convert4FromINtNtCsk2ORzXQUL6f_13nethsm_sdk_rs4apis5ErrorNtNtB1w_11default_api20KeysKeyIdDeleteErrorEE4fromB7_
FN:45,_RNvXNtCsggOPaNFMSYu_13nethsm_pkcs117backendNtB2_8ApiErrorINtNtCskl7yHyHAUN_4core7convert4FromINtNtCsk2ORzXQUL6f_13nethsm_sdk_rs4apis5ErrorNtNtB1w_11default_api25KeysKeyIdDecryptPostErrorEE4fromB4_
FN:90,_RNvXs0_NtCsggOPaNFMSYu_13nethsm_pkcs117backendNtB5_5ErrorINtNtCskl7yHyHAUN_4core7convert4FromINtNtCsk2ORzXQUL6f_13nethsm_sdk_rs4apis5ErrorNtNtB1w_11default_api19HealthStateGetErrorEE4fromB7_
FN:45,_RNvXNtCsggOPaNFMSYu_13nethsm_pkcs117backendNtB2_8ApiErrorINtNtCskl7yHyHAUN_4core7convert4FromINtNtCsk2ORzXQUL6f_13nethsm_sdk_rs4apis5ErrorNtNtB1w_11default_api22KeysKeyIdSignPostErrorEE4fromB4_
FN:45,_RNvXNtCsggOPaNFMSYu_13nethsm_pkcs117backendNtB2_8ApiErrorINtNtCskl7yHyHAUN_4core7convert4FromINtNtCsk2ORzXQUL6f_13nethsm_sdk_rs4apis5ErrorNtNtB1w_11default_api19HealthStateGetErrorEE4fromB4_
FN:90,_RNvXs0_NtCsggOPaNFMSYu_13nethsm_pkcs117backendNtB5_5ErrorINtNtCskl7yHyHAUN_4core7convert4FromINtNtCsk2ORzXQUL6f_13nethsm_sdk_rs4apis5ErrorNtNtB1w_11default_api22KeysKeyIdSignPostErrorEE4fromB7_
FN:90,_RNvXs0_NtCsggOPaNFMSYu_13nethsm_pkcs117backendNtB5_5ErrorINtNtCskl7yHyHAUN_4core7convert4FromINtNtCsk2ORzXQUL6f_13nethsm_sdk_rs4apis5ErrorNtNtB1w_11default_api25KeysKeyIdDecryptPostErrorEE4fromB7_
FN:45,_RNvXNtCsggOPaNFMSYu_13nethsm_pkcs117backendNtB2_8ApiErrorINtNtCskl7yHyHAUN_4core7convert4FromINtNtCsk2ORzXQUL6f_13nethsm_sdk_rs4apis5ErrorNtNtB1w_11default_api15RandomPostErrorEE4fromB4_
FN:45,_RNvXNtCsggOPaNFMSYu_13nethsm_pkcs117backendNtB2_8ApiErrorINtNtCskl7yHyHAUN_4core7convert4FromINtNtCsk2ORzXQUL6f_13nethsm_sdk_rs4apis5ErrorNtNtB1w_11default_api17KeysKeyIdPutErrorEE4fromB4_
FN:45,_RNvXNtCsggOPaNFMSYu_13nethsm_pkcs117backendNtB2_8ApiErrorINtNtCskl7yHyHAUN_4core7convert4FromINtNtCsk2ORzXQUL6f_13nethsm_sdk_rs4apis5ErrorNtNtB1w_11default_api21KeysKeyIdCertGetErrorEE4fromB4_
FN:84,_RNvXs_NtCsggOPaNFMSYu_13nethsm_pkcs117backendNtB4_5ErrorINtNtCskl7yHyHAUN_4core7convert4FromINtNtNtCsdYNYsCsji72_3std4sync6poison11PoisonErrorINtNtB1x_5mutex10MutexGuardINtNtNtNtB1z_11collections4hash3map7HashMapNtNtCsf2W9KFidpdm_5alloc6string6StringB3o_EEEE4fromB6_
FN:90,_RNvXs0_NtCsggOPaNFMSYu_13nethsm_pkcs117backendNtB5_5ErrorINtNtCskl7yHyHAUN_4core7convert4FromINtNtCsk2ORzXQUL6f_13nethsm_sdk_rs4apis5ErrorNtNtB1w_11default_api12KeysGetErrorEE4fromB7_
FN:90,_RNvXs0_NtCsggOPaNFMSYu_13nethsm_pkcs117backendNtB5_5ErrorINtNtCskl7yHyHAUN_4core7convert4FromINtNtCsk2ORzXQUL6f_13nethsm_sdk_rs4apis5ErrorNtNtB1w_11default_api17KeysKeyIdGetErrorEE4fromB7_
FN:45,_RNvXNtCsggOPaNFMSYu_13nethsm_pkcs117backendNtB2_8ApiErrorINtNtCskl7yHyHAUN_4core7convert4FromINtNtCsk2ORzXQUL6f_13nethsm_sdk_rs4apis5ErrorNtNtB1w_11default_api18SystemInfoGetErrorEE4fromB4_
FN:45,_RNvXNtCsggOPaNFMSYu_13nethsm_pkcs117backendNtB2_8ApiErrorINtNtCskl7yHyHAUN_4core7convert4FromINtNtCsk2ORzXQUL6f_13nethsm_sdk_rs4apis5ErrorNtNtB1w_11default_api21KeysGeneratePostErrorEE4fromB4_
FN:45,_RNvXNtCsggOPaNFMSYu_13nethsm_pkcs117backendNtB2_8ApiErrorINtNtCskl7yHyHAUN_4core7convert4FromINtNtCsk2ORzXQUL6f_13nethsm_sdk_rs4apis5ErrorNtNtB1w_11default_api25KeysKeyIdEncryptPostErrorEE4fromB4_
FN:90,_RNvXs0_NtCsggOPaNFMSYu_13nethsm_pkcs117backendNtB5_5ErrorINtNtCskl7yHyHAUN_4core7convert4FromINtNtCsk2ORzXQUL6f_13nethsm_sdk_rs4apis5ErrorNtNtB1w_11default_api18SystemInfoGetErrorEE4fromB7_
FN:90,_RNvXs0_NtCsggOPaNFMSYu_13nethsm_pkcs117backendNtB5_5ErrorINtNtCskl7yHyHAUN_4core7convert4FromINtNtCsk2ORzXQUL6f_13nethsm_sdk_rs4apis5ErrorNtNtB1w_11default_api21KeysGeneratePostErrorEE4fromB7_
FN:90,_RNvXs0_NtCsggOPaNFMSYu_13nethsm_pkcs117backendNtB5_5ErrorINtNtCskl7yHyHAUN_4core7convert4FromINtNtCsk2ORzXQUL6f_13nethsm_sdk_rs4apis5ErrorNtNtB1w_11default_api25KeysKeyIdEncryptPostErrorEE4fromB7_
FN:90,_RNvXs0_NtCsggOPaNFMSYu_13nethsm_pkcs117backendNtB5_5ErrorINtNtCskl7yHyHAUN_4core7convert4FromINtNtCsk2ORzXQUL6f_13nethsm_sdk_rs4apis5ErrorNtNtB1w_11default_api15RandomPostErrorEE4fromB7_
FN:90,_RNvXs0_NtCsggOPaNFMSYu_13nethsm_pkcs117backendNtB5_5ErrorINtNtCskl7yHyHAUN_4core7convert4FromINtNtCsk2ORzXQUL6f_13nethsm_sdk_rs4apis5ErrorNtNtB1w_11default_api17KeysKeyIdPutErrorEE4fromB7_
FN:90,_RNvXs0_NtCsggOPaNFMSYu_13nethsm_pkcs117backendNtB5_5ErrorINtNtCskl7yHyHAUN_4core7convert4FromINtNtCsk2ORzXQUL6f_13nethsm_sdk_rs4apis5ErrorNtNtB1w_11default_api21KeysKeyIdCertGetErrorEE4fromB7_
FN:45,_RNvXNtCsggOPaNFMSYu_13nethsm_pkcs117backendNtB2_8ApiErrorINtNtCskl7yHyHAUN_4core7convert4FromINtNtCsk2ORzXQUL6f_13nethsm_sdk_rs4apis5ErrorNtNtB1w_11default_api30UsersUserIdPassphrasePostErrorEE4fromB4_
FN:45,_RNvXNtCsggOPaNFMSYu_13nethsm_pkcs117backendNtB2_8ApiErrorINtNtCskl7yHyHAUN_4core7convert4FromINtNtCsk2ORzXQUL6f_13nethsm_sdk_rs4apis5ErrorNtNtB1w_11default_api24KeysKeyIdCertDeleteErrorEE4fromB4_
FN:90,_RNvXs0_NtCsggOPaNFMSYu_13nethsm_pkcs117backendNtB5_5ErrorINtNtCskl7yHyHAUN_4core7convert4FromINtNtCsk2ORzXQUL6f_13nethsm_sdk_rs4apis5ErrorNtNtB1w_11default_api24KeysKeyIdCertDeleteErrorEE4fromB7_
FN:30,_RNvXs7_NtCsggOPaNFMSYu_13nethsm_pkcs117backendNtB5_15ResponseContentNtNtCskl7yHyHAUN_4core5clone5Clone5cloneB7_
FN:90,_RNvXs0_NtCsjTLMFSz4sfV_13nethsm_pkcs117backendNtB5_5ErrorINtNtCskl7yHyHAUN_4core7convert4FromINtNtCsk2ORzXQUL6f_13nethsm_sdk_rs4apis5ErrorNtNtB1w_11default_api30UsersUserIdPassphrasePostErrorEE4fromB7_
FN:45,_RNvXNtCsjTLMFSz4sfV_13nethsm_pkcs117backendNtB2_8ApiErrorINtNtCskl7yHyHAUN_4core7convert4FromINtNtCsk2ORzXQUL6f_13nethsm_sdk_rs4apis5ErrorNtNtB1w_11default_api12InfoGetErrorEE4fromB4_
FN:45,_RNvXNtCsjTLMFSz4sfV_13nethsm_pkcs117backendNtB2_8ApiErrorINtNtCskl7yHyHAUN_4core7convert4FromINtNtCsk2ORzXQUL6f_13nethsm_sdk_rs4apis5ErrorNtNtB1w_11default_api13KeysPostErrorEE4fromB4_
FN:45,_RNvXNtCsjTLMFSz4sfV_13nethsm_pkcs117backendNtB2_8ApiErrorINtNtCskl7yHyHAUN_4core7convert4FromINtNtCsk2ORzXQUL6f_13nethsm_sdk_rs4apis5ErrorNtNtB1w_11default_api20KeysKeyIdDeleteErrorEE4fromB4_
FN:45,_RNvXNtCsjTLMFSz4sfV_13nethsm_pkcs117backendNtB2_8ApiErrorINtNtCskl7yHyHAUN_4core7convert4FromINtNtCsk2ORzXQUL6f_13nethsm_sdk_rs4apis5ErrorNtNtB1w_11default_api21KeysKeyIdCertPutErrorEE4fromB4_
FN:90,_RNvXs0_NtCsjTLMFSz4sfV_13nethsm_pkcs117backendNtB5_5ErrorINtNtCskl7yHyHAUN_4core7convert4FromINtNtCsk2ORzXQUL6f_13nethsm_sdk_rs4apis5ErrorNtNtB1w_11default_api21KeysKeyIdCertPutErrorEE4fromB7_
FN:45,_RNvXNtCsjTLMFSz4sfV_13nethsm_pkcs117backendNtB2_8ApiErrorINtNtCskl7yHyHAUN_4core7convert4FromINtNtCsk2ORzXQUL6f_13nethsm_sdk_rs4apis5ErrorNtNtB1w_11default_api17KeysKeyIdGetErrorEE4fromB4_
FN:45,_RNvXNtCsjTLMFSz4sfV_13nethsm_pkcs117backendNtB2_8ApiErrorINtNtCskl7yHyHAUN_4core7convert4FromINtNtCsk2ORzXQUL6f_13nethsm_sdk_rs4apis5ErrorNtNtB1w_11default_api12KeysGetErrorEE4fromB4_
FN:90,_RNvXs0_NtCsjTLMFSz4sfV_13nethsm_pkcs117backendNtB5_5ErrorINtNtCskl7yHyHAUN_4core7convert4FromINtNtCsk2ORzXQUL6f_13nethsm_sdk_rs4apis5ErrorNtNtB1w_11default_api12InfoGetErrorEE4fromB7_
FN:90,_RNvXs0_NtCsjTLMFSz4sfV_13nethsm_pkcs117backendNtB5_5ErrorINtNtCskl7yHyHAUN_4core7convert4FromINtNtCsk2ORzXQUL6f_13nethsm_sdk_rs4apis5ErrorNtNtB1w_11default_api13KeysPostErrorEE4fromB7_
FN:90,_RNvXs0_NtCsjTLMFSz4sfV_13nethsm_pkcs117backendNtB5_5ErrorINtNtCskl7yHyHAUN_4core7convert4FromINtNtCsk2ORzXQUL6f_13nethsm_sdk_rs4apis5ErrorNtNtB1w_11default_api20KeysKeyIdDeleteErrorEE4fromB7_
FN:45,_RNvXNtCsjTLMFSz4sfV_13nethsm_pkcs117backendNtB2_8ApiErrorINtNtCskl7yHyHAUN_4core7convert4FromINtNtCsk2ORzXQUL6f_13nethsm_sdk_rs4apis5ErrorNtNtB1w_11default_api25KeysKeyIdDecryptPostErrorEE4fromB4_
FN:90,_RNvXs0_NtCsjTLMFSz4sfV_13nethsm_pkcs117backendNtB5_5ErrorINtNtCskl7yHyHAUN_4core7convert4FromINtNtCsk2ORzXQUL6f_13nethsm_sdk_rs4apis5ErrorNtNtB1w_11default_api19HealthStateGetErrorEE4fromB7_
FN:45,_RNvXNtCsjTLMFSz4sfV_13nethsm_pkcs117backendNtB2_8ApiErrorINtNtCskl7yHyHAUN_4core7convert4FromINtNtCsk2ORzXQUL6f_13nethsm_sdk_rs4apis5ErrorNtNtB1w_11default_api22KeysKeyIdSignPostErrorEE4fromB4_
FN:45,_RNvXNtCsjTLMFSz4sfV_13nethsm_pkcs117backendNtB2_8ApiErrorINtNtCskl7yHyHAUN_4core7convert4FromINtNtCsk2ORzXQUL6f_13nethsm_sdk_rs4apis5ErrorNtNtB1w_11default_api19HealthStateGetErrorEE4fromB4_
FN:90,_RNvXs0_NtCsjTLMFSz4sfV_13nethsm_pkcs117backendNtB5_5ErrorINtNtCskl7yHyHAUN_4core7convert4FromINtNtCsk2ORzXQUL6f_13nethsm_sdk_rs4apis5ErrorNtNtB1w_11default_api22KeysKeyIdSignPostErrorEE4fromB7_
FN:90,_RNvXs0_NtCsjTLMFSz4sfV_13nethsm_pkcs117backendNtB5_5ErrorINtNtCskl7yHyHAUN_4core7convert4FromINtNtCsk2ORzXQUL6f_13nethsm_sdk_rs4apis5ErrorNtNtB1w_11default_api25KeysKeyIdDecryptPostErrorEE4fromB7_
FN:45,_RNvXNtCsjTLMFSz4sfV_13nethsm_pkcs117backendNtB2_8ApiErrorINtNtCskl7yHyHAUN_4core7convert4FromINtNtCsk2ORzXQUL6f_13nethsm_sdk_rs4apis5ErrorNtNtB1w_11default_api15RandomPostErrorEE4fromB4_
FN:45,_RNvXNtCsjTLMFSz4sfV_13nethsm_pkcs117backendNtB2_8ApiErrorINtNtCskl7yHyHAUN_4core7convert4FromINtNtCsk2ORzXQUL6f_13nethsm_sdk_rs4apis5ErrorNtNtB1w_11default_api17KeysKeyIdPutErrorEE4fromB4_
FN:45,_RNvXNtCsjTLMFSz4sfV_13nethsm_pkcs117backendNtB2_8ApiErrorINtNtCskl7yHyHAUN_4core7convert4FromINtNtCsk2ORzXQUL6f_13nethsm_sdk_rs4apis5ErrorNtNtB1w_11default_api21KeysKeyIdCertGetErrorEE4fromB4_
FN:84,_RNvXs_NtCsjTLMFSz4sfV_13nethsm_pkcs117backendNtB4_5ErrorINtNtCskl7yHyHAUN_4core7convert4FromINtNtNtCsdYNYsCsji72_3std4sync6poison11PoisonErrorINtNtB1x_5mutex10MutexGuardINtNtNtNtB1z_11collections4hash3map7HashMapNtNtCsf2W9KFidpdm_5alloc6string6StringB3o_EEEE4fromB6_
FN:90,_RNvXs0_NtCsjTLMFSz4sfV_13nethsm_pkcs117backendNtB5_5ErrorINtNtCskl7yHyHAUN_4core7convert4FromINtNtCsk2ORzXQUL6f_13nethsm_sdk_rs4apis5ErrorNtNtB1w_11default_api12KeysGetErrorEE4fromB7_
FN:90,_RNvXs0_NtCsjTLMFSz4sfV_13nethsm_pkcs117backendNtB5_5ErrorINtNtCskl7yHyHAUN_4core7convert4FromINtNtCsk2ORzXQUL6f_13nethsm_sdk_rs4apis5ErrorNtNtB1w_11default_api17KeysKeyIdGetErrorEE4fromB7_
FN:45,_RNvXNtCsjTLMFSz4sfV_13nethsm_pkcs117backendNtB2_8ApiErrorINtNtCskl7yHyHAUN_4core7convert4FromINtNtCsk2ORzXQUL6f_13nethsm_sdk_rs4apis5ErrorNtNtB1w_11default_api18SystemInfoGetErrorEE4fromB4_
FN:45,_RNvXNtCsjTLMFSz4sfV_13nethsm_pkcs117backendNtB2_8ApiErrorINtNtCskl7yHyHAUN_4core7convert4FromINtNtCsk2ORzXQUL6f_13nethsm_sdk_rs4apis5ErrorNtNtB1w_11default_api21KeysGeneratePostErrorEE4fromB4_
FN:45,_RNvXNtCsjTLMFSz4sfV_13nethsm_pkcs117backendNtB2_8ApiErrorINtNtCskl7yHyHAUN_4core7convert4FromINtNtCsk2ORzXQUL6f_13nethsm_sdk_rs4apis5ErrorNtNtB1w_11default_api25KeysKeyIdEncryptPostErrorEE4fromB4_
FN:90,_RNvXs0_NtCsjTLMFSz4sfV_13nethsm_pkcs117backendNtB5_5ErrorINtNtCskl7yHyHAUN_4core7convert4FromINtNtCsk2ORzXQUL6f_13nethsm_sdk_rs4apis5ErrorNtNtB1w_11default_api18SystemInfoGetErrorEE4fromB7_
FN:90,_RNvXs0_NtCsjTLMFSz4sfV_13nethsm_pkcs117backendNtB5_5ErrorINtNtCskl7yHyHAUN_4core7convert4FromINtNtCsk2ORzXQUL6f_13nethsm_sdk_rs4apis5ErrorNtNtB1w_11default_api21KeysGeneratePostErrorEE4fromB7_
FN:90,_RNvXs0_NtCsjTLMFSz4sfV_13nethsm_pkcs117backendNtB5_5ErrorINtNtCskl7yHyHAUN_4core7convert4FromINtNtCsk2ORzXQUL6f_13nethsm_sdk_rs4apis5ErrorNtNtB1w_11default_api25KeysKeyIdEncryptPostErrorEE4fromB7_
FN:90,_RNvXs0_NtCsjTLMFSz4sfV_13nethsm_pkcs117backendNtB5_5ErrorINtNtCskl7yHyHAUN_4core7convert4FromINtNtCsk2ORzXQUL6f_13nethsm_sdk_rs4apis5ErrorNtNtB1w_11default_api15RandomPostErrorEE4fromB7_
FN:90,_RNvXs0_NtCsjTLMFSz4sfV_13nethsm_pkcs117backendNtB5_5ErrorINtNtCskl7yHyHAUN_4core7convert4FromINtNtCsk2ORzXQUL6f_13nethsm_sdk_rs4apis5ErrorNtNtB1w_11default_api17KeysKeyIdPutErrorEE4fromB7_
FN:90,_RNvXs0_NtCsjTLMFSz4sfV_13nethsm_pkcs117backendNtB5_5ErrorINtNtCskl7yHyHAUN_4core7convert4FromINtNtCsk2ORzXQUL6f_13nethsm_sdk_rs4apis5ErrorNtNtB1w_11default_api21KeysKeyIdCertGetErrorEE4fromB7_
FN:45,_RNvXNtCsjTLMFSz4sfV_13nethsm_pkcs117backendNtB2_8ApiErrorINtNtCskl7yHyHAUN_4core7convert4FromINtNtCsk2ORzXQUL6f_13nethsm_sdk_rs4apis5ErrorNtNtB1w_11default_api30UsersUserIdPassphrasePostErrorEE4fromB4_
FN:45,_RNvXNtCsjTLMFSz4sfV_13nethsm_pkcs117backendNtB2_8ApiErrorINtNtCskl7yHyHAUN_4core7convert4FromINtNtCsk2ORzXQUL6f_13nethsm_sdk_rs4apis5ErrorNtNtB1w_11default_api24KeysKeyIdCertDeleteErrorEE4fromB4_
FN:90,_RNvXs0_NtCsjTLMFSz4sfV_13nethsm_pkcs117backendNtB5_5ErrorINtNtCskl7yHyHAUN_4core7convert4FromINtNtCsk2ORzXQUL6f_13nethsm_sdk_rs4apis5ErrorNtNtB1w_11default_api24KeysKeyIdCertDeleteErrorEE4fromB7_
FN:30,_RNvXs7_NtCsjTLMFSz4sfV_13nethsm_pkcs117backendNtB5_15ResponseContentNtNtCskl7yHyHAUN_4core5clone5Clone5cloneB7_
FN:58,_RNvXs9_NtCsjTLMFSz4sfV_13nethsm_pkcs117backendNtB5_5ErrorNtNtCskl7yHyHAUN_4core3fmt5Debug3fmt
FN:108,_RNvXs3_NtCsjTLMFSz4sfV_13nethsm_pkcs117backendNtB5_5ErrorINtNtCskl7yHyHAUN_4core7convert4FromNtNtCsf2W9KFidpdm_5alloc6string13FromUtf8ErrorE4from
FN:96,_RNvXs1_NtCsjTLMFSz4sfV_13nethsm_pkcs117backendNtB5_5ErrorINtNtCskl7yHyHAUN_4core7convert4FromNtNtCs3r5UF2JHC8q_6base646decode11DecodeErrorE4from
FN:114,_RNvXs4_NtCsjTLMFSz4sfV_13nethsm_pkcs117backendyINtNtCskl7yHyHAUN_4core7convert4FromNtB5_5ErrorE4from
FN:30,_RNvXs6_NtCsjTLMFSz4sfV_13nethsm_pkcs117backendNtB5_15ResponseContentNtNtCskl7yHyHAUN_4core3fmt5Debug3fmt
FN:36,_RNvXs8_NtCsjTLMFSz4sfV_13nethsm_pkcs117backendNtB5_8ApiErrorNtNtCskl7yHyHAUN_4core3fmt5Debug3fmt
FN:102,_RNvXs2_NtCsjTLMFSz4sfV_13nethsm_pkcs117backendNtB5_5ErrorINtNtCskl7yHyHAUN_4core7convert4FromNtNtCs6Z7f7eHmVo2_7openssl5error10ErrorStackE4from
FN:153,_RNvXs5_NtCsjTLMFSz4sfV_13nethsm_pkcs117backendNtB5_5ErrorNtNtCskl7yHyHAUN_4core3fmt7Display3fmt
FNDA:0,_RNvXs3_NtCsggOPaNFMSYu_13nethsm_pkcs117backendNtB5_5ErrorINtNtCskl7yHyHAUN_4core7convert4FromNtNtCsf2W9KFidpdm_5alloc6string13FromUtf8ErrorE4from
FNDA:0,_RNvXs9_NtCsggOPaNFMSYu_13nethsm_pkcs117backendNtB5_5ErrorNtNtCskl7yHyHAUN_4core3fmt5Debug3fmt
FNDA:0,_RNvXs6_NtCsggOPaNFMSYu_13nethsm_pkcs117backendNtB5_15ResponseContentNtNtCskl7yHyHAUN_4core3fmt5Debug3fmt
FNDA:0,_RNvXs1_NtCsggOPaNFMSYu_13nethsm_pkcs117backendNtB5_5ErrorINtNtCskl7yHyHAUN_4core7convert4FromNtNtCs3r5UF2JHC8q_6base646decode11DecodeErrorE4from
FNDA:1,_RNvXs4_NtCsggOPaNFMSYu_13nethsm_pkcs117backendyINtNtCskl7yHyHAUN_4core7convert4FromNtB5_5ErrorE4from
FNDA:0,_RNvXs8_NtCsggOPaNFMSYu_13nethsm_pkcs117backendNtB5_8ApiErrorNtNtCskl7yHyHAUN_4core3fmt5Debug3fmt
FNDA:0,_RNvXs2_NtCsggOPaNFMSYu_13nethsm_pkcs117backendNtB5_5ErrorINtNtCskl7yHyHAUN_4core7convert4FromNtNtCs6Z7f7eHmVo2_7openssl5error10ErrorStackE4from
FNDA:1,_RNvXs5_NtCsggOPaNFMSYu_13nethsm_pkcs117backendNtB5_5ErrorNtNtCskl7yHyHAUN_4core3fmt7Display3fmt
FNDA:0,_RNvXs0_NtCsggOPaNFMSYu_13nethsm_pkcs117backendNtB5_5ErrorINtNtCskl7yHyHAUN_4core7convert4FromINtNtCsk2ORzXQUL6f_13nethsm_sdk_rs4apis5ErrorNtNtB1w_11default_api30UsersUserIdPassphrasePostErrorEE4fromB7_
FNDA:0,_RNvXNtCsggOPaNFMSYu_13nethsm_pkcs117backendNtB2_8ApiErrorINtNtCskl7yHyHAUN_4core7convert4FromINtNtCsk2ORzXQUL6f_13nethsm_sdk_rs4apis5ErrorNtNtB1w_11default_api12InfoGetErrorEE4fromB4_
FNDA:0,_RNvXNtCsggOPaNFMSYu_13nethsm_pkcs117backendNtB2_8ApiErrorINtNtCskl7yHyHAUN_4core7convert4FromINtNtCsk2ORzXQUL6f_13nethsm_sdk_rs4apis5ErrorNtNtB1w_11default_api13KeysPostErrorEE4fromB4_
FNDA:0,_RNvXNtCsggOPaNFMSYu_13nethsm_pkcs117backendNtB2_8ApiErrorINtNtCskl7yHyHAUN_4core7convert4FromINtNtCsk2ORzXQUL6f_13nethsm_sdk_rs4apis5ErrorNtNtB1w_11default_api20KeysKeyIdDeleteErrorEE4fromB4_
FNDA:0,_RNvXNtCsggOPaNFMSYu_13nethsm_pkcs117backendNtB2_8ApiErrorINtNtCskl7yHyHAUN_4core7convert4FromINtNtCsk2ORzXQUL6f_13nethsm_sdk_rs4apis5ErrorNtNtB1w_11default_api21KeysKeyIdCertPutErrorEE4fromB4_
FNDA:0,_RNvXs0_NtCsggOPaNFMSYu_13nethsm_pkcs117backendNtB5_5ErrorINtNtCskl7yHyHAUN_4core7convert4FromINtNtCsk2ORzXQUL6f_13nethsm_sdk_rs4apis5ErrorNtNtB1w_11default_api21KeysKeyIdCertPutErrorEE4fromB7_
FNDA:0,_RNvXNtCsggOPaNFMSYu_13nethsm_pkcs117backendNtB2_8ApiErrorINtNtCskl7yHyHAUN_4core7convert4FromINtNtCsk2ORzXQUL6f_13nethsm_sdk_rs4apis5ErrorNtNtB1w_11default_api17KeysKeyIdGetErrorEE4fromB4_
FNDA:0,_RNvXNtCsggOPaNFMSYu_13nethsm_pkcs117backendNtB2_8ApiErrorINtNtCskl7yHyHAUN_4core7convert4FromINtNtCsk2ORzXQUL6f_13nethsm_sdk_rs4apis5ErrorNtNtB1w_11default_api12KeysGetErrorEE4fromB4_
FNDA:0,_RNvXs0_NtCsggOPaNFMSYu_13nethsm_pkcs117backendNtB5_5ErrorINtNtCskl7yHyHAUN_4core7convert4FromINtNtCsk2ORzXQUL6f_13nethsm_sdk_rs4apis5ErrorNtNtB1w_11default_api12InfoGetErrorEE4fromB7_
FNDA:0,_RNvXs0_NtCsggOPaNFMSYu_13nethsm_pkcs117backendNtB5_5ErrorINtNtCskl7yHyHAUN_4core7convert4FromINtNtCsk2ORzXQUL6f_13nethsm_sdk_rs4apis5ErrorNtNtB1w_11default_api13KeysPostErrorEE4fromB7_
FNDA:0,_RNvXs0_NtCsggOPaNFMSYu_13nethsm_pkcs117backendNtB5_5ErrorINtNtCskl7yHyHAUN_4core7convert4FromINtNtCsk2ORzXQUL6f_13nethsm_sdk_rs4apis5ErrorNtNtB1w_11default_api20KeysKeyIdDeleteErrorEE4fromB7_
FNDA:0,_RNvXNtCsggOPaNFMSYu_13nethsm_pkcs117backendNtB2_8ApiErrorINtNtCskl7yHyHAUN_4core7convert4FromINtNtCsk2ORzXQUL6f_13nethsm_sdk_rs4apis5ErrorNtNtB1w_11default_api25KeysKeyIdDecryptPostErrorEE4fromB4_
FNDA:0,_RNvXs0_NtCsggOPaNFMSYu_13nethsm_pkcs117backendNtB5_5ErrorINtNtCskl7yHyHAUN_4core7convert4FromINtNtCsk2ORzXQUL6f_13nethsm_sdk_rs4apis5ErrorNtNtB1w_11default_api19HealthStateGetErrorEE4fromB7_
FNDA:0,_RNvXNtCsggOPaNFMSYu_13nethsm_pkcs117backendNtB2_8ApiErrorINtNtCskl7yHyHAUN_4core7convert4FromINtNtCsk2ORzXQUL6f_13nethsm_sdk_rs4apis5ErrorNtNtB1w_11default_api22KeysKeyIdSignPostErrorEE4fromB4_
FNDA:0,_RNvXNtCsggOPaNFMSYu_13nethsm_pkcs117backendNtB2_8ApiErrorINtNtCskl7yHyHAUN_4core7convert4FromINtNtCsk2ORzXQUL6f_13nethsm_sdk_rs4apis5ErrorNtNtB1w_11default_api19HealthStateGetErrorEE4fromB4_
FNDA:0,_RNvXs0_NtCsggOPaNFMSYu_13nethsm_pkcs117backendNtB5_5ErrorINtNtCskl7yHyHAUN_4core7convert4FromINtNtCsk2ORzXQUL6f_13nethsm_sdk_rs4apis5ErrorNtNtB1w_11default_api22KeysKeyIdSignPostErrorEE4fromB7_
FNDA:0,_RNvXs0_NtCsggOPaNFMSYu_13nethsm_pkcs117backendNtB5_5ErrorINtNtCskl7yHyHAUN_4core7convert4FromINtNtCsk2ORzXQUL6f_13nethsm_sdk_rs4apis5ErrorNtNtB1w_11default_api25KeysKeyIdDecryptPostErrorEE4fromB7_
FNDA:0,_RNvXNtCsggOPaNFMSYu_13nethsm_pkcs117backendNtB2_8ApiErrorINtNtCskl7yHyHAUN_4core7convert4FromINtNtCsk2ORzXQUL6f_13nethsm_sdk_rs4apis5ErrorNtNtB1w_11default_api15RandomPostErrorEE4fromB4_
FNDA:0,_RNvXNtCsggOPaNFMSYu_13nethsm_pkcs117backendNtB2_8ApiErrorINtNtCskl7yHyHAUN_4core7convert4FromINtNtCsk2ORzXQUL6f_13nethsm_sdk_rs4apis5ErrorNtNtB1w_11default_api17KeysKeyIdPutErrorEE4fromB4_
FNDA:0,_RNvXNtCsggOPaNFMSYu_13nethsm_pkcs117backendNtB2_8ApiErrorINtNtCskl7yHyHAUN_4core7convert4FromINtNtCsk2ORzXQUL6f_13nethsm_sdk_rs4apis5ErrorNtNtB1w_11default_api21KeysKeyIdCertGetErrorEE4fromB4_
FNDA:0,_RNvXs_NtCsggOPaNFMSYu_13nethsm_pkcs117backendNtB4_5ErrorINtNtCskl7yHyHAUN_4core7convert4FromINtNtNtCsdYNYsCsji72_3std4sync6poison11PoisonErrorINtNtB1x_5mutex10MutexGuardINtNtNtNtB1z_11collections4hash3map7HashMapNtNtCsf2W9KFidpdm_5alloc6string6StringB3o_EEEE4fromB6_
FNDA:0,_RNvXs0_NtCsggOPaNFMSYu_13nethsm_pkcs117backendNtB5_5ErrorINtNtCskl7yHyHAUN_4core7convert4FromINtNtCsk2ORzXQUL6f_13nethsm_sdk_rs4apis5ErrorNtNtB1w_11default_api12KeysGetErrorEE4fromB7_
FNDA:0,_RNvXs0_NtCsggOPaNFMSYu_13nethsm_pkcs117backendNtB5_5ErrorINtNtCskl7yHyHAUN_4core7convert4FromINtNtCsk2ORzXQUL6f_13nethsm_sdk_rs4apis5ErrorNtNtB1w_11default_api17KeysKeyIdGetErrorEE4fromB7_
FNDA:0,_RNvXNtCsggOPaNFMSYu_13nethsm_pkcs117backendNtB2_8ApiErrorINtNtCskl7yHyHAUN_4core7convert4FromINtNtCsk2ORzXQUL6f_13nethsm_sdk_rs4apis5ErrorNtNtB1w_11default_api18SystemInfoGetErrorEE4fromB4_
FNDA:0,_RNvXNtCsggOPaNFMSYu_13nethsm_pkcs117backendNtB2_8ApiErrorINtNtCskl7yHyHAUN_4core7convert4FromINtNtCsk2ORzXQUL6f_13nethsm_sdk_rs4apis5ErrorNtNtB1w_11default_api21KeysGeneratePostErrorEE4fromB4_
FNDA:0,_RNvXNtCsggOPaNFMSYu_13nethsm_pkcs117backendNtB2_8ApiErrorINtNtCskl7yHyHAUN_4core7convert4FromINtNtCsk2ORzXQUL6f_13nethsm_sdk_rs4apis5ErrorNtNtB1w_11default_api25KeysKeyIdEncryptPostErrorEE4fromB4_
FNDA:0,_RNvXs0_NtCsggOPaNFMSYu_13nethsm_pkcs117backendNtB5_5ErrorINtNtCskl7yHyHAUN_4core7convert4FromINtNtCsk2ORzXQUL6f_13nethsm_sdk_rs4apis5ErrorNtNtB1w_11default_api18SystemInfoGetErrorEE4fromB7_
FNDA:0,_RNvXs0_NtCsggOPaNFMSYu_13nethsm_pkcs117backendNtB5_5ErrorINtNtCskl7yHyHAUN_4core7convert4FromINtNtCsk2ORzXQUL6f_13nethsm_sdk_rs4apis5ErrorNtNtB1w_11default_api21KeysGeneratePostErrorEE4fromB7_
FNDA:0,_RNvXs0_NtCsggOPaNFMSYu_13nethsm_pkcs117backendNtB5_5ErrorINtNtCskl7yHyHAUN_4core7convert4FromINtNtCsk2ORzXQUL6f_13nethsm_sdk_rs4apis5ErrorNtNtB1w_11default_api25KeysKeyIdEncryptPostErrorEE4fromB7_
FNDA:0,_RNvXs0_NtCsggOPaNFMSYu_13nethsm_pkcs117backendNtB5_5ErrorINtNtCskl7yHyHAUN_4core7convert4FromINtNtCsk2ORzXQUL6f_13nethsm_sdk_rs4apis5ErrorNtNtB1w_11default_api15RandomPostErrorEE4fromB7_
FNDA:0,_RNvXs0_NtCsggOPaNFMSYu_13nethsm_pkcs117backendNtB5_5ErrorINtNtCskl7yHyHAUN_4core7convert4FromINtNtCsk2ORzXQUL6f_13nethsm_sdk_rs4apis5ErrorNtNtB1w_11default_api17KeysKeyIdPutErrorEE4fromB7_
FNDA:0,_RNvXs0_NtCsggOPaNFMSYu_13nethsm_pkcs117backendNtB5_5ErrorINtNtCskl7yHyHAUN_4core7convert4FromINtNtCsk2ORzXQUL6f_13nethsm_sdk_rs4apis5ErrorNtNtB1w_11default_api21KeysKeyIdCertGetErrorEE4fromB7_
FNDA:0,_RNvXNtCsggOPaNFMSYu_13nethsm_pkcs117backendNtB2_8ApiErrorINtNtCskl7yHyHAUN_4core7convert4FromINtNtCsk2ORzXQUL6f_13nethsm_sdk_rs4apis5ErrorNtNtB1w_11default_api30UsersUserIdPassphrasePostErrorEE4fromB4_
FNDA:0,_RNvXNtCsggOPaNFMSYu_13nethsm_pkcs117backendNtB2_8ApiErrorINtNtCskl7yHyHAUN_4core7convert4FromINtNtCsk2ORzXQUL6f_13nethsm_sdk_rs4apis5ErrorNtNtB1w_11default_api24KeysKeyIdCertDeleteErrorEE4fromB4_
FNDA:0,_RNvXs0_NtCsggOPaNFMSYu_13nethsm_pkcs117backendNtB5_5ErrorINtNtCskl7yHyHAUN_4core7convert4FromINtNtCsk2ORzXQUL6f_13nethsm_sdk_rs4apis5ErrorNtNtB1w_11default_api24KeysKeyIdCertDeleteErrorEE4fromB7_
FNDA:0,_RNvXs7_NtCsggOPaNFMSYu_13nethsm_pkcs117backendNtB5_15ResponseContentNtNtCskl7yHyHAUN_4core5clone5Clone5cloneB7_
FNDA:0,_RNvXs0_NtCsjTLMFSz4sfV_13nethsm_pkcs117backendNtB5_5ErrorINtNtCskl7yHyHAUN_4core7convert4FromINtNtCsk2ORzXQUL6f_13nethsm_sdk_rs4apis5ErrorNtNtB1w_11default_api30UsersUserIdPassphrasePostErrorEE4fromB7_
FNDA:0,_RNvXNtCsjTLMFSz4sfV_13nethsm_pkcs117backendNtB2_8ApiErrorINtNtCskl7yHyHAUN_4core7convert4FromINtNtCsk2ORzXQUL6f_13nethsm_sdk_rs4apis5ErrorNtNtB1w_11default_api12InfoGetErrorEE4fromB4_
FNDA:0,_RNvXNtCsjTLMFSz4sfV_13nethsm_pkcs117backendNtB2_8ApiErrorINtNtCskl7yHyHAUN_4core7convert4FromINtNtCsk2ORzXQUL6f_13nethsm_sdk_rs4apis5ErrorNtNtB1w_11default_api13KeysPostErrorEE4fromB4_
FNDA:0,_RNvXNtCsjTLMFSz4sfV_13nethsm_pkcs117backendNtB2_8ApiErrorINtNtCskl7yHyHAUN_4core7convert4FromINtNtCsk2ORzXQUL6f_13nethsm_sdk_rs4apis5ErrorNtNtB1w_11default_api20KeysKeyIdDeleteErrorEE4fromB4_
FNDA:0,_RNvXNtCsjTLMFSz4sfV_13nethsm_pkcs117backendNtB2_8ApiErrorINtNtCskl7yHyHAUN_4core7convert4FromINtNtCsk2ORzXQUL6f_13nethsm_sdk_rs4apis5ErrorNtNtB1w_11default_api21KeysKeyIdCertPutErrorEE4fromB4_
FNDA:0,_RNvXs0_NtCsjTLMFSz4sfV_13nethsm_pkcs117backendNtB5_5ErrorINtNtCskl7yHyHAUN_4core7convert4FromINtNtCsk2ORzXQUL6f_13nethsm_sdk_rs4apis5ErrorNtNtB1w_11default_api21KeysKeyIdCertPutErrorEE4fromB7_
FNDA:0,_RNvXNtCsjTLMFSz4sfV_13nethsm_pkcs117backendNtB2_8ApiErrorINtNtCskl7yHyHAUN_4core7convert4FromINtNtCsk2ORzXQUL6f_13nethsm_sdk_rs4apis5ErrorNtNtB1w_11default_api17KeysKeyIdGetErrorEE4fromB4_
FNDA:0,_RNvXNtCsjTLMFSz4sfV_13nethsm_pkcs117backendNtB2_8ApiErrorINtNtCskl7yHyHAUN_4core7convert4FromINtNtCsk2ORzXQUL6f_13nethsm_sdk_rs4apis5ErrorNtNtB1w_11default_api12KeysGetErrorEE4fromB4_
FNDA:0,_RNvXs0_NtCsjTLMFSz4sfV_13nethsm_pkcs117backendNtB5_5ErrorINtNtCskl7yHyHAUN_4core7convert4FromINtNtCsk2ORzXQUL6f_13nethsm_sdk_rs4apis5ErrorNtNtB1w_11default_api12InfoGetErrorEE4fromB7_
FNDA:0,_RNvXs0_NtCsjTLMFSz4sfV_13nethsm_pkcs117backendNtB5_5ErrorINtNtCskl7yHyHAUN_4core7convert4FromINtNtCsk2ORzXQUL6f_13nethsm_sdk_rs4apis5ErrorNtNtB1w_11default_api13KeysPostErrorEE4fromB7_
FNDA:0,_RNvXs0_NtCsjTLMFSz4sfV_13nethsm_pkcs117backendNtB5_5ErrorINtNtCskl7yHyHAUN_4core7convert4FromINtNtCsk2ORzXQUL6f_13nethsm_sdk_rs4apis5ErrorNtNtB1w_11default_api20KeysKeyIdDeleteErrorEE4fromB7_
FNDA:0,_RNvXNtCsjTLMFSz4sfV_13nethsm_pkcs117backendNtB2_8ApiErrorINtNtCskl7yHyHAUN_4core7convert4FromINtNtCsk2ORzXQUL6f_13nethsm_sdk_rs4apis5ErrorNtNtB1w_11default_api25KeysKeyIdDecryptPostErrorEE4fromB4_
FNDA:0,_RNvXs0_NtCsjTLMFSz4sfV_13nethsm_pkcs117backendNtB5_5ErrorINtNtCskl7yHyHAUN_4core7convert4FromINtNtCsk2ORzXQUL6f_13nethsm_sdk_rs4apis5ErrorNtNtB1w_11default_api19HealthStateGetErrorEE4fromB7_
FNDA:0,_RNvXNtCsjTLMFSz4sfV_13nethsm_pkcs117backendNtB2_8ApiErrorINtNtCskl7yHyHAUN_4core7convert4FromINtNtCsk2ORzXQUL6f_13nethsm_sdk_rs4apis5ErrorNtNtB1w_11default_api22KeysKeyIdSignPostErrorEE4fromB4_
FNDA:0,_RNvXNtCsjTLMFSz4sfV_13nethsm_pkcs117backendNtB2_8ApiErrorINtNtCskl7yHyHAUN_4core7convert4FromINtNtCsk2ORzXQUL6f_13nethsm_sdk_rs4apis5ErrorNtNtB1w_11default_api19HealthStateGetErrorEE4fromB4_
FNDA:0,_RNvXs0_NtCsjTLMFSz4sfV_13nethsm_pkcs117backendNtB5_5ErrorINtNtCskl7yHyHAUN_4core7convert4FromINtNtCsk2ORzXQUL6f_13nethsm_sdk_rs4apis5ErrorNtNtB1w_11default_api22KeysKeyIdSignPostErrorEE4fromB7_
FNDA:0,_RNvXs0_NtCsjTLMFSz4sfV_13nethsm_pkcs117backendNtB5_5ErrorINtNtCskl7yHyHAUN_4core7convert4FromINtNtCsk2ORzXQUL6f_13nethsm_sdk_rs4apis5ErrorNtNtB1w_11default_api25KeysKeyIdDecryptPostErrorEE4fromB7_
FNDA:0,_RNvXNtCsjTLMFSz4sfV_13nethsm_pkcs117backendNtB2_8ApiErrorINtNtCskl7yHyHAUN_4core7convert4FromINtNtCsk2ORzXQUL6f_13nethsm_sdk_rs4apis5ErrorNtNtB1w_11default_api15RandomPostErrorEE4fromB4_
FNDA:0,_RNvXNtCsjTLMFSz4sfV_13nethsm_pkcs117backendNtB2_8ApiErrorINtNtCskl7yHyHAUN_4core7convert4FromINtNtCsk2ORzXQUL6f_13nethsm_sdk_rs4apis5ErrorNtNtB1w_11default_api17KeysKeyIdPutErrorEE4fromB4_
FNDA:0,_RNvXNtCsjTLMFSz4sfV_13nethsm_pkcs117backendNtB2_8ApiErrorINtNtCskl7yHyHAUN_4core7convert4FromINtNtCsk2ORzXQUL6f_13nethsm_sdk_rs4apis5ErrorNtNtB1w_11default_api21KeysKeyIdCertGetErrorEE4fromB4_
FNDA:0,_RNvXs_NtCsjTLMFSz4sfV_13nethsm_pkcs117backendNtB4_5ErrorINtNtCskl7yHyHAUN_4core7convert4FromINtNtNtCsdYNYsCsji72_3std4sync6poison11PoisonErrorINtNtB1x_5mutex10MutexGuardINtNtNtNtB1z_11collections4hash3map7HashMapNtNtCsf2W9KFidpdm_5alloc6string6StringB3o_EEEE4fromB6_
FNDA:0,_RNvXs0_NtCsjTLMFSz4sfV_13nethsm_pkcs117backendNtB5_5ErrorINtNtCskl7yHyHAUN_4core7convert4FromINtNtCsk2ORzXQUL6f_13nethsm_sdk_rs4apis5ErrorNtNtB1w_11default_api12KeysGetErrorEE4fromB7_
FNDA:0,_RNvXs0_NtCsjTLMFSz4sfV_13nethsm_pkcs117backendNtB5_5ErrorINtNtCskl7yHyHAUN_4core7convert4FromINtNtCsk2ORzXQUL6f_13nethsm_sdk_rs4apis5ErrorNtNtB1w_11default_api17KeysKeyIdGetErrorEE4fromB7_
FNDA:0,_RNvXNtCsjTLMFSz4sfV_13nethsm_pkcs117backendNtB2_8ApiErrorINtNtCskl7yHyHAUN_4core7convert4FromINtNtCsk2ORzXQUL6f_13nethsm_sdk_rs4apis5ErrorNtNtB1w_11default_api18SystemInfoGetErrorEE4fromB4_
FNDA:0,_RNvXNtCsjTLMFSz4sfV_13nethsm_pkcs117backendNtB2_8ApiErrorINtNtCskl7yHyHAUN_4core7convert4FromINtNtCsk2ORzXQUL6f_13nethsm_sdk_rs4apis5ErrorNtNtB1w_11default_api21KeysGeneratePostErrorEE4fromB4_
FNDA:0,_RNvXNtCsjTLMFSz4sfV_13nethsm_pkcs117backendNtB2_8ApiErrorINtNtCskl7yHyHAUN_4core7convert4FromINtNtCsk2ORzXQUL6f_13nethsm_sdk_rs4apis5ErrorNtNtB1w_11default_api25KeysKeyIdEncryptPostErrorEE4fromB4_
FNDA:0,_RNvXs0_NtCsjTLMFSz4sfV_13nethsm_pkcs117backendNtB5_5ErrorINtNtCskl7yHyHAUN_4core7convert4FromINtNtCsk2ORzXQUL6f_13nethsm_sdk_rs4apis5ErrorNtNtB1w_11default_api18SystemInfoGetErrorEE4fromB7_
FNDA:0,_RNvXs0_NtCsjTLMFSz4sfV_13nethsm_pkcs117backendNtB5_5ErrorINtNtCskl7yHyHAUN_4core7convert4FromINtNtCsk2ORzXQUL6f_13nethsm_sdk_rs4apis5ErrorNtNtB1w_11default_api21KeysGeneratePostErrorEE4fromB7_
FNDA:0,_RNvXs0_NtCsjTLMFSz4sfV_13nethsm_pkcs117backendNtB5_5ErrorINtNtCskl7yHyHAUN_4core7convert4FromINtNtCsk2ORzXQUL6f_13nethsm_sdk_rs4apis5ErrorNtNtB1w_11default_api25KeysKeyIdEncryptPostErrorEE4fromB7_
FNDA:0,_RNvXs0_NtCsjTLMFSz4sfV_13nethsm_pkcs117backendNtB5_5ErrorINtNtCskl7yHyHAUN_4core7convert4FromINtNtCsk2ORzXQUL6f_13nethsm_sdk_rs4apis5ErrorNtNtB1w_11default_api15RandomPostErrorEE4fromB7_
FNDA:0,_RNvXs0_NtCsjTLMFSz4sfV_13nethsm_pkcs117backendNtB5_5ErrorINtNtCskl7yHyHAUN_4core7convert4FromINtNtCsk2ORzXQUL6f_13nethsm_sdk_rs4apis5ErrorNtNtB1w_11default_api17KeysKeyIdPutErrorEE4fromB7_
FNDA:0,_RNvXs0_NtCsjTLMFSz4sfV_13nethsm_pkcs117backendNtB5_5ErrorINtNtCskl7yHyHAUN_4core7convert4FromINtNtCsk2ORzXQUL6f_13nethsm_sdk_rs4apis5ErrorNtNtB1w_11default_api21KeysKeyIdCertGetErrorEE4fromB7_
FNDA:0,_RNvXNtCsjTLMFSz4sfV_13nethsm_pkcs117backendNtB2_8ApiErrorINtNtCskl7yHyHAUN_4core7convert4FromINtNtCsk2ORzXQUL6f_13nethsm_sdk_rs4apis5ErrorNtNtB1w_11default_api30UsersUserIdPassphrasePostErrorEE4fromB4_
FNDA:0,_RNvXNtCsjTLMFSz4sfV_13nethsm_pkcs117backendNtB2_8ApiErrorINtNtCskl7yHyHAUN_4core7convert4FromINtNtCsk2ORzXQUL6f_13nethsm_sdk_rs4apis5ErrorNtNtB1w_11default_api24KeysKeyIdCertDeleteErrorEE4fromB4_
FNDA:0,_RNvXs0_NtCsjTLMFSz4sfV_13nethsm_pkcs117backendNtB5_5ErrorINtNtCskl7yHyHAUN_4core7convert4FromINtNtCsk2ORzXQUL6f_13nethsm_sdk_rs4apis5ErrorNtNtB1w_11default_api24KeysKeyIdCertDeleteErrorEE4fromB7_
FNDA:0,_RNvXs7_NtCsjTLMFSz4sfV_13nethsm_pkcs117backendNtB5_15ResponseContentNtNtCskl7yHyHAUN_4core5clone5Clone5cloneB7_
FNDA:0,_RNvXs9_NtCsjTLMFSz4sfV_13nethsm_pkcs117backendNtB5_5ErrorNtNtCskl7yHyHAUN_4core3fmt5Debug3fmt
FNDA:0,_RNvXs3_NtCsjTLMFSz4sfV_13nethsm_pkcs117backendNtB5_5ErrorINtNtCskl7yHyHAUN_4core7convert4FromNtNtCsf2W9KFidpdm_5alloc6string13FromUtf8ErrorE4from
FNDA:0,_RNvXs1_NtCsjTLMFSz4sfV_13nethsm_pkcs117backendNtB5_5ErrorINtNtCskl7yHyHAUN_4core7convert4FromNtNtCs3r5UF2JHC8q_6base646decode11DecodeErrorE4from
FNDA:0,_RNvXs4_NtCsjTLMFSz4sfV_13nethsm_pkcs117backendyINtNtCskl7yHyHAUN_4core7convert4FromNtB5_5ErrorE4from
FNDA:0,_RNvXs6_NtCsjTLMFSz4sfV_13nethsm_pkcs117backendNtB5_15ResponseContentNtNtCskl7yHyHAUN_4core3fmt5Debug3fmt
FNDA:0,_RNvXs8_NtCsjTLMFSz4sfV_13nethsm_pkcs117backendNtB5_8ApiErrorNtNtCskl7yHyHAUN_4core3fmt5Debug3fmt
FNDA:0,_RNvXs2_NtCsjTLMFSz4sfV_13nethsm_pkcs117backendNtB5_5ErrorINtNtCskl7yHyHAUN_4core7convert4FromNtNtCs6Z7f7eHmVo2_7openssl5error10ErrorStackE4from
FNDA:0,_RNvXs5_NtCsjTLMFSz4sfV_13nethsm_pkcs117backendNtB5_5ErrorNtNtCskl7yHyHAUN_4core3fmt7Display3fmt
FNF:12
FNH:2
DA:30,0
DA:36,0
DA:45,0
DA:46,0
DA:47,0
DA:48,0
DA:49,0
DA:50,0
DA:51,0
DA:52,0
DA:53,0
DA:55,0
DA:58,0
DA:84,0
DA:85,0
DA:86,0
DA:90,0
DA:91,0
DA:92,0
DA:96,0
DA:97,0
DA:98,0
DA:102,0
DA:103,0
DA:104,0
DA:108,0
DA:109,0
DA:110,0
DA:114,1
DA:115,1
DA:116,1
DA:117,1
DA:118,0
DA:119,0
DA:120,0
DA:121,0
DA:122,0
DA:123,0
DA:124,0
DA:125,0
DA:126,0
DA:127,0
DA:128,0
DA:129,0
DA:130,0
DA:131,0
DA:132,0
DA:133,1
DA:134,0
DA:135,0
DA:136,0
DA:137,0
DA:138,0
DA:139,0
DA:140,0
DA:141,0
DA:142,0
DA:143,0
DA:144,0
DA:148,1
DA:153,1
DA:154,1
DA:155,0
DA:156,0
DA:157,0
DA:158,0
DA:159,0
DA:161,0
DA:162,0
DA:163,0
DA:164,0
DA:166,0
DA:167,0
DA:168,0
DA:169,0
DA:170,0
DA:171,0
DA:172,0
DA:173,0
DA:174,0
DA:175,0
DA:176,0
DA:178,0
DA:179,0
DA:180,0
DA:181,0
DA:182,1
DA:183,1
DA:185,0
DA:186,0
DA:187,0
DA:188,0
DA:189,0
DA:190,0
DA:191,0
DA:193,0
DA:195,0
DA:198,0
DA:199,0
DA:200,0
DA:202,1
DA:203,1
BRF:0
BRH:0
LF:103
LH:12
end_of_record
SF:/home/sautax/git/nethsm-pkcs11/pkcs11/src/backend/object.rs
FN:49,_RNCNvNtNtCsggOPaNFMSYu_13nethsm_pkcs117backend6object22parse_key_requirements0B7_
FN:29,_RNvNtNtCsggOPaNFMSYu_13nethsm_pkcs117backend6object22parse_key_requirements
FN:80,_RNvNtNtCsggOPaNFMSYu_13nethsm_pkcs117backend6object19parse_str_from_attr
FN:98,_RNvMNtNtCsggOPaNFMSYu_13nethsm_pkcs117backend6objectNtB2_7EnumCtx3new
FN:88,_RNvMNtNtCsggOPaNFMSYu_13nethsm_pkcs117backend6objectNtB2_7EnumCtx9enum_init
FN:101,_RNvMNtNtCsggOPaNFMSYu_13nethsm_pkcs117backend6objectNtB2_7EnumCtx11next_chunck
FN:16,_RNvXs_NtNtCsggOPaNFMSYu_13nethsm_pkcs117backend6objectNtB4_7EnumCtxNtNtCskl7yHyHAUN_4core5clone5Clone5cloneB8_
FN:16,_RNvXs0_NtNtCsggOPaNFMSYu_13nethsm_pkcs117backend6objectNtB5_7EnumCtxNtNtCskl7yHyHAUN_4core3fmt5Debug3fmt
FN:22,_RNvXs1_NtNtCsggOPaNFMSYu_13nethsm_pkcs117backend6objectNtB5_15KeyRequirementsNtNtCskl7yHyHAUN_4core5clone5Clone5cloneB9_
FN:22,_RNvXs2_NtNtCsggOPaNFMSYu_13nethsm_pkcs117backend6objectNtB5_15KeyRequirementsNtNtCskl7yHyHAUN_4core3fmt5Debug3fmt
FN:22,_RNvXs1_NtNtCsjTLMFSz4sfV_13nethsm_pkcs117backend6objectNtB5_15KeyRequirementsNtNtCskl7yHyHAUN_4core5clone5Clone5cloneB9_
FN:22,_RNvXs2_NtNtCsjTLMFSz4sfV_13nethsm_pkcs117backend6objectNtB5_15KeyRequirementsNtNtCskl7yHyHAUN_4core3fmt5Debug3fmt
FN:16,_RNvXs_NtNtCsjTLMFSz4sfV_13nethsm_pkcs117backend6objectNtB4_7EnumCtxNtNtCskl7yHyHAUN_4core5clone5Clone5cloneB8_
FN:16,_RNvXs0_NtNtCsjTLMFSz4sfV_13nethsm_pkcs117backend6objectNtB5_7EnumCtxNtNtCskl7yHyHAUN_4core3fmt5Debug3fmt
FN:49,_RNCNvNtNtCsjTLMFSz4sfV_13nethsm_pkcs117backend6object22parse_key_requirements0B7_
FN:98,_RNvMNtNtCsjTLMFSz4sfV_13nethsm_pkcs117backend6objectNtB2_7EnumCtx3new
FN:80,_RNvNtNtCsjTLMFSz4sfV_13nethsm_pkcs117backend6object19parse_str_from_attr
FN:101,_RNvMNtNtCsjTLMFSz4sfV_13nethsm_pkcs117backend6objectNtB2_7EnumCtx11next_chunck
FN:29,_RNvNtNtCsjTLMFSz4sfV_13nethsm_pkcs117backend6object22parse_key_requirements
FN:88,_RNvMNtNtCsjTLMFSz4sfV_13nethsm_pkcs117backend6objectNtB2_7EnumCtx9enum_init
FNDA:380,_RNCNvNtNtCsggOPaNFMSYu_13nethsm_pkcs117backend6object22parse_key_requirements0B7_
FNDA:78,_RNvNtNtCsggOPaNFMSYu_13nethsm_pkcs117backend6object22parse_key_requirements
FNDA:0,_RNvNtNtCsggOPaNFMSYu_13nethsm_pkcs117backend6object19parse_str_from_attr
FNDA:78,_RNvMNtNtCsggOPaNFMSYu_13nethsm_pkcs117backend6objectNtB2_7EnumCtx3new
FNDA:78,_RNvMNtNtCsggOPaNFMSYu_13nethsm_pkcs117backend6objectNtB2_7EnumCtx9enum_init
FNDA:288,_RNvMNtNtCsggOPaNFMSYu_13nethsm_pkcs117backend6objectNtB2_7EnumCtx11next_chunck
FNDA:0,_RNvXs_NtNtCsggOPaNFMSYu_13nethsm_pkcs117backend6objectNtB4_7EnumCtxNtNtCskl7yHyHAUN_4core5clone5Clone5cloneB8_
FNDA:0,_RNvXs0_NtNtCsggOPaNFMSYu_13nethsm_pkcs117backend6objectNtB5_7EnumCtxNtNtCskl7yHyHAUN_4core3fmt5Debug3fmt
FNDA:0,_RNvXs1_NtNtCsggOPaNFMSYu_13nethsm_pkcs117backend6objectNtB5_15KeyRequirementsNtNtCskl7yHyHAUN_4core5clone5Clone5cloneB9_
FNDA:0,_RNvXs2_NtNtCsggOPaNFMSYu_13nethsm_pkcs117backend6objectNtB5_15KeyRequirementsNtNtCskl7yHyHAUN_4core3fmt5Debug3fmt
FNDA:0,_RNvXs1_NtNtCsjTLMFSz4sfV_13nethsm_pkcs117backend6objectNtB5_15KeyRequirementsNtNtCskl7yHyHAUN_4core5clone5Clone5cloneB9_
FNDA:0,_RNvXs2_NtNtCsjTLMFSz4sfV_13nethsm_pkcs117backend6objectNtB5_15KeyRequirementsNtNtCskl7yHyHAUN_4core3fmt5Debug3fmt
FNDA:0,_RNvXs_NtNtCsjTLMFSz4sfV_13nethsm_pkcs117backend6objectNtB4_7EnumCtxNtNtCskl7yHyHAUN_4core5clone5Clone5cloneB8_
FNDA:0,_RNvXs0_NtNtCsjTLMFSz4sfV_13nethsm_pkcs117backend6objectNtB5_7EnumCtxNtNtCskl7yHyHAUN_4core3fmt5Debug3fmt
FNDA:0,_RNCNvNtNtCsjTLMFSz4sfV_13nethsm_pkcs117backend6object22parse_key_requirements0B7_
FNDA:0,_RNvMNtNtCsjTLMFSz4sfV_13nethsm_pkcs117backend6objectNtB2_7EnumCtx3new
FNDA:0,_RNvNtNtCsjTLMFSz4sfV_13nethsm_pkcs117backend6object19parse_str_from_attr
FNDA:0,_RNvMNtNtCsjTLMFSz4sfV_13nethsm_pkcs117backend6objectNtB2_7EnumCtx11next_chunck
FNDA:0,_RNvNtNtCsjTLMFSz4sfV_13nethsm_pkcs117backend6object22parse_key_requirements
FNDA:0,_RNvMNtNtCsjTLMFSz4sfV_13nethsm_pkcs117backend6objectNtB2_7EnumCtx9enum_init
FNF:10
FNH:5
DA:16,0
DA:22,0
DA:29,78
DA:30,78
DA:31,78
DA:32,78
DA:33,78
DA:34,78
DA:35,126
DA:36,126
DA:37,126
DA:39,126
DA:40,78
DA:41,48
DA:43,126
DA:44,48
DA:45,48
DA:46,48
DA:47,48
DA:49,380
DA:50,48
DA:51,48
DA:52,0
DA:54,48
DA:55,0
DA:56,0
DA:57,0
DA:58,48
DA:59,48
DA:60,0
DA:61,78
DA:62,126
DA:63,0
DA:64,126
DA:66,78
DA:67,78
DA:68,78
DA:69,78
DA:70,78
DA:72,0
DA:73,0
DA:74,0
DA:75,0
DA:76,0
DA:78,78
DA:80,0
DA:81,0
DA:82,0
DA:83,0
DA:84,0
DA:85,0
DA:88,78
DA:89,78
DA:90,78
DA:91,78
DA:92,78
DA:94,78
DA:95,78
DA:96,78
DA:98,78
DA:99,78
DA:100,78
DA:101,288
DA:102,288
DA:103,288
DA:104,288
DA:106,288
DA:107,285
DA:108,285
DA:109,285
DA:110,3
DA:113,288
DA:114,288
BRF:0
BRH:0
LF:76
LH:55
end_of_record
SF:/home/sautax/git/nethsm-pkcs11/pkcs11/src/backend/session.rs
FN:138,_RNvMs_NtNtCsggOPaNFMSYu_13nethsm_pkcs117backend7sessionNtB4_7Session9enum_init
FN:230,_RNvMs_NtNtCsggOPaNFMSYu_13nethsm_pkcs117backend7sessionNtB4_7Session12encrypt_init
FN:352,_RNvMs_NtNtCsggOPaNFMSYu_13nethsm_pkcs117backend7sessionNtB4_7Session30decrypt_theoretical_final_size
FN:457,_RNvMs_NtNtCsggOPaNFMSYu_13nethsm_pkcs117backend7sessionNtB4_7Session14fetch_all_keys
FN:557,_RNvMs_NtNtCsggOPaNFMSYu_13nethsm_pkcs117backend7sessionNtB4_7Session13create_object
FN:641,_RNvMs_NtNtCsggOPaNFMSYu_13nethsm_pkcs117backend7sessionNtB4_7Session12generate_key
FN:387,_RNvMs_NtNtCsggOPaNFMSYu_13nethsm_pkcs117backend7sessionNtB4_7Session8find_key
FN:581,_RNvMs_NtNtCsggOPaNFMSYu_13nethsm_pkcs117backend7sessionNtB4_7Session13delete_object
FN:158,_RNvMs_NtNtCsggOPaNFMSYu_13nethsm_pkcs117backend7sessionNtB4_7Session9sign_init
FN:202,_RNvMs_NtNtCsggOPaNFMSYu_13nethsm_pkcs117backend7sessionNtB4_7Session11sign_update
FN:56,_RNvMNtNtCsggOPaNFMSYu_13nethsm_pkcs117backend7sessionNtB2_14SessionManager11get_session
FN:98,_RNvMs_NtNtCsggOPaNFMSYu_13nethsm_pkcs117backend7sessionNtB4_7Session3new
FN:154,_RNvMs_NtNtCsggOPaNFMSYu_13nethsm_pkcs117backend7sessionNtB4_7Session10enum_final
FN:222,_RNvMs_NtNtCsggOPaNFMSYu_13nethsm_pkcs117backend7sessionNtB4_7Session4sign
FN:64,_RNvMNtNtCsggOPaNFMSYu_13nethsm_pkcs117backend7sessionNtB2_14SessionManager14delete_session
FN:128,_RNvMs_NtNtCsggOPaNFMSYu_13nethsm_pkcs117backend7sessionNtB4_7Session5login
FN:262,_RNvMs_NtNtCsggOPaNFMSYu_13nethsm_pkcs117backend7sessionNtB4_7Session16encrypt_add_data
FN:282,_RNvMs_NtNtCsggOPaNFMSYu_13nethsm_pkcs117backend7sessionNtB4_7Session14encrypt_update
FN:304,_RNvMs_NtNtCsggOPaNFMSYu_13nethsm_pkcs117backend7sessionNtB4_7Session12decrypt_init
FN:371,_RNvMs_NtNtCsggOPaNFMSYu_13nethsm_pkcs117backend7sessionNtB4_7Session7decrypt
FN:226,_RNvMs_NtNtCsggOPaNFMSYu_13nethsm_pkcs117backend7sessionNtB4_7Session10sign_clear
FN:71,_RNvMNtNtCsggOPaNFMSYu_13nethsm_pkcs117backend7sessionNtB2_14SessionManager24delete_all_slot_sessions
FN:133,_RNvMs_NtNtCsggOPaNFMSYu_13nethsm_pkcs117backend7sessionNtB4_7Session6logout
FN:193,_RNvMs_NtNtCsggOPaNFMSYu_13nethsm_pkcs117backend7sessionNtB4_7Session21sign_theoretical_size
FN:42,_RNvMNtNtCsggOPaNFMSYu_13nethsm_pkcs117backend7sessionNtB2_14SessionManager14create_session
FN:286,_RNvMs_NtNtCsggOPaNFMSYu_13nethsm_pkcs117backend7sessionNtB4_7Session13encrypt_final
FN:148,_RNvMs_NtNtCsggOPaNFMSYu_13nethsm_pkcs117backend7sessionNtB4_7Session15enum_next_chunk
FN:212,_RNvMs_NtNtCsggOPaNFMSYu_13nethsm_pkcs117backend7sessionNtB4_7Session10sign_final
FN:60,_RNvMNtNtCsggOPaNFMSYu_13nethsm_pkcs117backend7sessionNtB2_14SessionManager15get_session_mut
FN:117,_RNvMs_NtNtCsggOPaNFMSYu_13nethsm_pkcs117backend7sessionNtB4_7Session11get_ck_info
FN:272,_RNvMs_NtNtCsggOPaNFMSYu_13nethsm_pkcs117backend7sessionNtB4_7Session22encrypt_available_data
FN:300,_RNvMs_NtNtCsggOPaNFMSYu_13nethsm_pkcs117backend7sessionNtB4_7Session13encrypt_clear
FN:348,_RNvMs_NtNtCsggOPaNFMSYu_13nethsm_pkcs117backend7sessionNtB4_7Session24decrypt_theoretical_size
FN:361,_RNvMs_NtNtCsggOPaNFMSYu_13nethsm_pkcs117backend7sessionNtB4_7Session13decrypt_final
FN:375,_RNvMs_NtNtCsggOPaNFMSYu_13nethsm_pkcs117backend7sessionNtB4_7Session13decrypt_clear
FN:337,_RNvMs_NtNtCsggOPaNFMSYu_13nethsm_pkcs117backend7sessionNtB4_7Session14decrypt_update
FN:379,_RNvMs_NtNtCsggOPaNFMSYu_13nethsm_pkcs117backend7sessionNtB4_7Session10get_object
FN:35,_RNvMNtNtCsggOPaNFMSYu_13nethsm_pkcs117backend7sessionNtB2_14SessionManager3new
FN:296,_RNvMs_NtNtCsggOPaNFMSYu_13nethsm_pkcs117backend7sessionNtB4_7Session7encrypt
FN:241,_RNCNvMs_NtNtCsggOPaNFMSYu_13nethsm_pkcs117backend7sessionNtB6_7Session12encrypt_init0Ba_
FN:616,_RNCNCNCNvMs_NtNtCsggOPaNFMSYu_13nethsm_pkcs117backend7sessionNtBa_7Session13delete_objects0_000Be_
FN:451,_RNCNCNvMs_NtNtCsggOPaNFMSYu_13nethsm_pkcs117backend7sessionNtB8_7Session8find_key0s1_0Bc_
FN:315,_RNCNvMs_NtNtCsggOPaNFMSYu_13nethsm_pkcs117backend7sessionNtB6_7Session12decrypt_init0Ba_
FN:462,_RNCNvMs_NtNtCsggOPaNFMSYu_13nethsm_pkcs117backend7sessionNtB6_7Session14fetch_all_keys0Ba_
FN:512,_RNCNCNvMs_NtNtCsggOPaNFMSYu_13nethsm_pkcs117backend7sessionNtB8_7Session14fetch_all_keys0s0_0Bc_
FN:391,_RNCNvMs_NtNtCsggOPaNFMSYu_13nethsm_pkcs117backend7sessionNtB6_7Session8find_key0Ba_
FN:454,_RNCNCNvMs_NtNtCsggOPaNFMSYu_13nethsm_pkcs117backend7sessionNtB8_7Session8find_key0s2_0Bc_
FN:172,_RNCNvMs_NtNtCsggOPaNFMSYu_13nethsm_pkcs117backend7sessionNtB6_7Session9sign_init0Ba_
FN:398,_RNCNCNvMs_NtNtCsggOPaNFMSYu_13nethsm_pkcs117backend7sessionNtB8_7Session8find_key00Bc_
FN:73,_RNCNvMNtNtCsggOPaNFMSYu_13nethsm_pkcs117backend7sessionNtB4_14SessionManager24delete_all_slot_sessions0B8_
FN:601,_RNCNvMs_NtNtCsggOPaNFMSYu_13nethsm_pkcs117backend7sessionNtB6_7Session13delete_objects_0Ba_
FN:629,_RNCNvMs_NtNtCsggOPaNFMSYu_13nethsm_pkcs117backend7sessionNtB6_7Session13delete_objects1_0Ba_
FN:613,_RNCNvMs_NtNtCsggOPaNFMSYu_13nethsm_pkcs117backend7sessionNtB6_7Session13delete_objects0_0Ba_
FN:399,_RNCNCNCNvMs_NtNtCsggOPaNFMSYu_13nethsm_pkcs117backend7sessionNtBa_7Session8find_key000Be_
FN:531,_RNCNCNvMs_NtNtCsggOPaNFMSYu_13nethsm_pkcs117backend7sessionNtB8_7Session14fetch_all_keys0s1_0Bc_
FN:547,_RNCNCNvMs_NtNtCsggOPaNFMSYu_13nethsm_pkcs117backend7sessionNtB8_7Session14fetch_all_keys0s2_0Bc_
FN:380,_RNCNvMs_NtNtCsggOPaNFMSYu_13nethsm_pkcs117backend7sessionNtB6_7Session10get_object0Ba_
FN:422,_RNCNCNvMs_NtNtCsggOPaNFMSYu_13nethsm_pkcs117backend7sessionNtB8_7Session8find_key0s0_0Bc_
FN:560,_RNCNvMs_NtNtCsggOPaNFMSYu_13nethsm_pkcs117backend7sessionNtB6_7Session13create_object0Ba_
FN:484,_RNCNCNCNvMs_NtNtCsggOPaNFMSYu_13nethsm_pkcs117backend7sessionNtBa_7Session14fetch_all_keys0s_00Be_
FN:588,_RNCNvMs_NtNtCsggOPaNFMSYu_13nethsm_pkcs117backend7sessionNtB6_7Session13delete_object0Ba_
FN:604,_RNCNCNCNvMs_NtNtCsggOPaNFMSYu_13nethsm_pkcs117backend7sessionNtBa_7Session13delete_objects_000Be_
FN:401,_RNCNCNvMs_NtNtCsggOPaNFMSYu_13nethsm_pkcs117backend7sessionNtB8_7Session8find_key0s_0Bc_
FN:467,_RNCNCNvMs_NtNtCsggOPaNFMSYu_13nethsm_pkcs117backend7sessionNtB8_7Session14fetch_all_keys00Bc_
FN:84,_RNvXs1_NtNtCsggOPaNFMSYu_13nethsm_pkcs117backend7sessionNtB5_7SessionNtNtCskl7yHyHAUN_4core3fmt5Debug3fmt
FN:28,_RNvXs0_NtNtCsggOPaNFMSYu_13nethsm_pkcs117backend7sessionNtB5_14SessionManagerNtNtCskl7yHyHAUN_4core3fmt5Debug3fmt
FN:422,_RNCNCNvMs_NtNtCsjTLMFSz4sfV_13nethsm_pkcs117backend7sessionNtB8_7Session8find_key0s0_0Bc_
FN:604,_RNCNCNCNvMs_NtNtCsjTLMFSz4sfV_13nethsm_pkcs117backend7sessionNtBa_7Session13delete_objects_000Be_
FN:560,_RNCNvMs_NtNtCsjTLMFSz4sfV_13nethsm_pkcs117backend7sessionNtB6_7Session13create_object0Ba_
FN:588,_RNCNvMs_NtNtCsjTLMFSz4sfV_13nethsm_pkcs117backend7sessionNtB6_7Session13delete_object0Ba_
FN:531,_RNCNCNvMs_NtNtCsjTLMFSz4sfV_13nethsm_pkcs117backend7sessionNtB8_7Session14fetch_all_keys0s1_0Bc_
FN:462,_RNCNvMs_NtNtCsjTLMFSz4sfV_13nethsm_pkcs117backend7sessionNtB6_7Session14fetch_all_keys0Ba_
FN:401,_RNCNCNvMs_NtNtCsjTLMFSz4sfV_13nethsm_pkcs117backend7sessionNtB8_7Session8find_key0s_0Bc_
FN:467,_RNCNCNvMs_NtNtCsjTLMFSz4sfV_13nethsm_pkcs117backend7sessionNtB8_7Session14fetch_all_keys00Bc_
FN:547,_RNCNCNvMs_NtNtCsjTLMFSz4sfV_13nethsm_pkcs117backend7sessionNtB8_7Session14fetch_all_keys0s2_0Bc_
FN:629,_RNCNvMs_NtNtCsjTLMFSz4sfV_13nethsm_pkcs117backend7sessionNtB6_7Session13delete_objects1_0Ba_
FN:398,_RNCNCNvMs_NtNtCsjTLMFSz4sfV_13nethsm_pkcs117backend7sessionNtB8_7Session8find_key00Bc_
FN:484,_RNCNCNCNvMs_NtNtCsjTLMFSz4sfV_13nethsm_pkcs117backend7sessionNtBa_7Session14fetch_all_keys0s_00Be_
FN:399,_RNCNCNCNvMs_NtNtCsjTLMFSz4sfV_13nethsm_pkcs117backend7sessionNtBa_7Session8find_key000Be_
FN:512,_RNCNCNvMs_NtNtCsjTLMFSz4sfV_13nethsm_pkcs117backend7sessionNtB8_7Session14fetch_all_keys0s0_0Bc_
FN:613,_RNCNvMs_NtNtCsjTLMFSz4sfV_13nethsm_pkcs117backend7sessionNtB6_7Session13delete_objects0_0Ba_
FN:380,_RNCNvMs_NtNtCsjTLMFSz4sfV_13nethsm_pkcs117backend7sessionNtB6_7Session10get_object0Ba_
FN:391,_RNCNvMs_NtNtCsjTLMFSz4sfV_13nethsm_pkcs117backend7sessionNtB6_7Session8find_key0Ba_
FN:454,_RNCNCNvMs_NtNtCsjTLMFSz4sfV_13nethsm_pkcs117backend7sessionNtB8_7Session8find_key0s2_0Bc_
FN:172,_RNCNvMs_NtNtCsjTLMFSz4sfV_13nethsm_pkcs117backend7sessionNtB6_7Session9sign_init0Ba_
FN:601,_RNCNvMs_NtNtCsjTLMFSz4sfV_13nethsm_pkcs117backend7sessionNtB6_7Session13delete_objects_0Ba_
FN:73,_RNCNvMNtNtCsjTLMFSz4sfV_13nethsm_pkcs117backend7sessionNtB4_14SessionManager24delete_all_slot_sessions0B8_
FN:241,_RNCNvMs_NtNtCsjTLMFSz4sfV_13nethsm_pkcs117backend7sessionNtB6_7Session12encrypt_init0Ba_
FN:451,_RNCNCNvMs_NtNtCsjTLMFSz4sfV_13nethsm_pkcs117backend7sessionNtB8_7Session8find_key0s1_0Bc_
FN:616,_RNCNCNCNvMs_NtNtCsjTLMFSz4sfV_13nethsm_pkcs117backend7sessionNtBa_7Session13delete_objects0_000Be_
FN:315,_RNCNvMs_NtNtCsjTLMFSz4sfV_13nethsm_pkcs117backend7sessionNtB6_7Session12decrypt_init0Ba_
FN:84,_RNvXs1_NtNtCsjTLMFSz4sfV_13nethsm_pkcs117backend7sessionNtB5_7SessionNtNtCskl7yHyHAUN_4core3fmt5Debug3fmt
FN:28,_RNvXs0_NtNtCsjTLMFSz4sfV_13nethsm_pkcs117backend7sessionNtB5_14SessionManagerNtNtCskl7yHyHAUN_4core3fmt5Debug3fmt
FN:138,_RNvMs_NtNtCsjTLMFSz4sfV_13nethsm_pkcs117backend7sessionNtB4_7Session9enum_init
FN:230,_RNvMs_NtNtCsjTLMFSz4sfV_13nethsm_pkcs117backend7sessionNtB4_7Session12encrypt_init
FN:352,_RNvMs_NtNtCsjTLMFSz4sfV_13nethsm_pkcs117backend7sessionNtB4_7Session30decrypt_theoretical_final_size
FN:375,_RNvMs_NtNtCsjTLMFSz4sfV_13nethsm_pkcs117backend7sessionNtB4_7Session13decrypt_clear
FN:379,_RNvMs_NtNtCsjTLMFSz4sfV_13nethsm_pkcs117backend7sessionNtB4_7Session10get_object
FN:457,_RNvMs_NtNtCsjTLMFSz4sfV_13nethsm_pkcs117backend7sessionNtB4_7Session14fetch_all_keys
FN:557,_RNvMs_NtNtCsjTLMFSz4sfV_13nethsm_pkcs117backend7sessionNtB4_7Session13create_object
FN:581,_RNvMs_NtNtCsjTLMFSz4sfV_13nethsm_pkcs117backend7sessionNtB4_7Session13delete_object
FN:641,_RNvMs_NtNtCsjTLMFSz4sfV_13nethsm_pkcs117backend7sessionNtB4_7Session12generate_key
FN:202,_RNvMs_NtNtCsjTLMFSz4sfV_13nethsm_pkcs117backend7sessionNtB4_7Session11sign_update
FN:56,_RNvMNtNtCsjTLMFSz4sfV_13nethsm_pkcs117backend7sessionNtB2_14SessionManager11get_session
FN:98,_RNvMs_NtNtCsjTLMFSz4sfV_13nethsm_pkcs117backend7sessionNtB4_7Session3new
FN:154,_RNvMs_NtNtCsjTLMFSz4sfV_13nethsm_pkcs117backend7sessionNtB4_7Session10enum_final
FN:222,_RNvMs_NtNtCsjTLMFSz4sfV_13nethsm_pkcs117backend7sessionNtB4_7Session4sign
FN:64,_RNvMNtNtCsjTLMFSz4sfV_13nethsm_pkcs117backend7sessionNtB2_14SessionManager14delete_session
FN:262,_RNvMs_NtNtCsjTLMFSz4sfV_13nethsm_pkcs117backend7sessionNtB4_7Session16encrypt_add_data
FN:304,_RNvMs_NtNtCsjTLMFSz4sfV_13nethsm_pkcs117backend7sessionNtB4_7Session12decrypt_init
FN:371,_RNvMs_NtNtCsjTLMFSz4sfV_13nethsm_pkcs117backend7sessionNtB4_7Session7decrypt
FN:387,_RNvMs_NtNtCsjTLMFSz4sfV_13nethsm_pkcs117backend7sessionNtB4_7Session8find_key
FN:158,_RNvMs_NtNtCsjTLMFSz4sfV_13nethsm_pkcs117backend7sessionNtB4_7Session9sign_init
FN:226,_RNvMs_NtNtCsjTLMFSz4sfV_13nethsm_pkcs117backend7sessionNtB4_7Session10sign_clear
FN:71,_RNvMNtNtCsjTLMFSz4sfV_13nethsm_pkcs117backend7sessionNtB2_14SessionManager24delete_all_slot_sessions
FN:133,_RNvMs_NtNtCsjTLMFSz4sfV_13nethsm_pkcs117backend7sessionNtB4_7Session6logout
FN:193,_RNvMs_NtNtCsjTLMFSz4sfV_13nethsm_pkcs117backend7sessionNtB4_7Session21sign_theoretical_size
FN:42,_RNvMNtNtCsjTLMFSz4sfV_13nethsm_pkcs117backend7sessionNtB2_14SessionManager14create_session
FN:286,_RNvMs_NtNtCsjTLMFSz4sfV_13nethsm_pkcs117backend7sessionNtB4_7Session13encrypt_final
FN:148,_RNvMs_NtNtCsjTLMFSz4sfV_13nethsm_pkcs117backend7sessionNtB4_7Session15enum_next_chunk
FN:212,_RNvMs_NtNtCsjTLMFSz4sfV_13nethsm_pkcs117backend7sessionNtB4_7Session10sign_final
FN:60,_RNvMNtNtCsjTLMFSz4sfV_13nethsm_pkcs117backend7sessionNtB2_14SessionManager15get_session_mut
FN:117,_RNvMs_NtNtCsjTLMFSz4sfV_13nethsm_pkcs117backend7sessionNtB4_7Session11get_ck_info
FN:272,_RNvMs_NtNtCsjTLMFSz4sfV_13nethsm_pkcs117backend7sessionNtB4_7Session22encrypt_available_data
FN:300,_RNvMs_NtNtCsjTLMFSz4sfV_13nethsm_pkcs117backend7sessionNtB4_7Session13encrypt_clear
FN:348,_RNvMs_NtNtCsjTLMFSz4sfV_13nethsm_pkcs117backend7sessionNtB4_7Session24decrypt_theoretical_size
FN:361,_RNvMs_NtNtCsjTLMFSz4sfV_13nethsm_pkcs117backend7sessionNtB4_7Session13decrypt_final
FN:282,_RNvMs_NtNtCsjTLMFSz4sfV_13nethsm_pkcs117backend7sessionNtB4_7Session14encrypt_update
FN:128,_RNvMs_NtNtCsjTLMFSz4sfV_13nethsm_pkcs117backend7sessionNtB4_7Session5login
FN:337,_RNvMs_NtNtCsjTLMFSz4sfV_13nethsm_pkcs117backend7sessionNtB4_7Session14decrypt_update
FN:35,_RNvMNtNtCsjTLMFSz4sfV_13nethsm_pkcs117backend7sessionNtB2_14SessionManager3new
FN:296,_RNvMs_NtNtCsjTLMFSz4sfV_13nethsm_pkcs117backend7sessionNtB4_7Session7encrypt
FNDA:78,_RNvMs_NtNtCsggOPaNFMSYu_13nethsm_pkcs117backend7sessionNtB4_7Session9enum_init
FNDA:1,_RNvMs_NtNtCsggOPaNFMSYu_13nethsm_pkcs117backend7sessionNtB4_7Session12encrypt_init
FNDA:0,_RNvMs_NtNtCsggOPaNFMSYu_13nethsm_pkcs117backend7sessionNtB4_7Session30decrypt_theoretical_final_size
FNDA:30,_RNvMs_NtNtCsggOPaNFMSYu_13nethsm_pkcs117backend7sessionNtB4_7Session14fetch_all_keys
FNDA:4,_RNvMs_NtNtCsggOPaNFMSYu_13nethsm_pkcs117backend7sessionNtB4_7Session13create_object
FNDA:7,_RNvMs_NtNtCsggOPaNFMSYu_13nethsm_pkcs117backend7sessionNtB4_7Session12generate_key
FNDA:78,_RNvMs_NtNtCsggOPaNFMSYu_13nethsm_pkcs117backend7sessionNtB4_7Session8find_key
FNDA:1,_RNvMs_NtNtCsggOPaNFMSYu_13nethsm_pkcs117backend7sessionNtB4_7Session13delete_object
FNDA:21,_RNvMs_NtNtCsggOPaNFMSYu_13nethsm_pkcs117backend7sessionNtB4_7Session9sign_init
FNDA:22,_RNvMs_NtNtCsggOPaNFMSYu_13nethsm_pkcs117backend7sessionNtB4_7Session11sign_update
FNDA:4,_RNvMNtNtCsggOPaNFMSYu_13nethsm_pkcs117backend7sessionNtB2_14SessionManager11get_session
FNDA:42,_RNvMs_NtNtCsggOPaNFMSYu_13nethsm_pkcs117backend7sessionNtB4_7Session3new
FNDA:78,_RNvMs_NtNtCsggOPaNFMSYu_13nethsm_pkcs117backend7sessionNtB4_7Session10enum_final
FNDA:19,_RNvMs_NtNtCsggOPaNFMSYu_13nethsm_pkcs117backend7sessionNtB4_7Session4sign
FNDA:41,_RNvMNtNtCsggOPaNFMSYu_13nethsm_pkcs117backend7sessionNtB2_14SessionManager14delete_session
FNDA:13,_RNvMs_NtNtCsggOPaNFMSYu_13nethsm_pkcs117backend7sessionNtB4_7Session5login
FNDA:1,_RNvMs_NtNtCsggOPaNFMSYu_13nethsm_pkcs117backend7sessionNtB4_7Session16encrypt_add_data
FNDA:0,_RNvMs_NtNtCsggOPaNFMSYu_13nethsm_pkcs117backend7sessionNtB4_7Session14encrypt_update
FNDA:12,_RNvMs_NtNtCsggOPaNFMSYu_13nethsm_pkcs117backend7sessionNtB4_7Session12decrypt_init
FNDA:12,_RNvMs_NtNtCsggOPaNFMSYu_13nethsm_pkcs117backend7sessionNtB4_7Session7decrypt
FNDA:20,_RNvMs_NtNtCsggOPaNFMSYu_13nethsm_pkcs117backend7sessionNtB4_7Session10sign_clear
FNDA:0,_RNvMNtNtCsggOPaNFMSYu_13nethsm_pkcs117backend7sessionNtB2_14SessionManager24delete_all_slot_sessions
FNDA:0,_RNvMs_NtNtCsggOPaNFMSYu_13nethsm_pkcs117backend7sessionNtB4_7Session6logout
FNDA:22,_RNvMs_NtNtCsggOPaNFMSYu_13nethsm_pkcs117backend7sessionNtB4_7Session21sign_theoretical_size
FNDA:42,_RNvMNtNtCsggOPaNFMSYu_13nethsm_pkcs117backend7sessionNtB2_14SessionManager14create_session
FNDA:1,_RNvMs_NtNtCsggOPaNFMSYu_13nethsm_pkcs117backend7sessionNtB4_7Session13encrypt_final
FNDA:288,_RNvMs_NtNtCsggOPaNFMSYu_13nethsm_pkcs117backend7sessionNtB4_7Session15enum_next_chunk
FNDA:20,_RNvMs_NtNtCsggOPaNFMSYu_13nethsm_pkcs117backend7sessionNtB4_7Session10sign_final
FNDA:1043,_RNvMNtNtCsggOPaNFMSYu_13nethsm_pkcs117backend7sessionNtB2_14SessionManager15get_session_mut
FNDA:4,_RNvMs_NtNtCsggOPaNFMSYu_13nethsm_pkcs117backend7sessionNtB4_7Session11get_ck_info
FNDA:0,_RNvMs_NtNtCsggOPaNFMSYu_13nethsm_pkcs117backend7sessionNtB4_7Session22encrypt_available_data
FNDA:1,_RNvMs_NtNtCsggOPaNFMSYu_13nethsm_pkcs117backend7sessionNtB4_7Session13encrypt_clear
FNDA:12,_RNvMs_NtNtCsggOPaNFMSYu_13nethsm_pkcs117backend7sessionNtB4_7Session24decrypt_theoretical_size
FNDA:12,_RNvMs_NtNtCsggOPaNFMSYu_13nethsm_pkcs117backend7sessionNtB4_7Session13decrypt_final
FNDA:12,_RNvMs_NtNtCsggOPaNFMSYu_13nethsm_pkcs117backend7sessionNtB4_7Session13decrypt_clear
FNDA:12,_RNvMs_NtNtCsggOPaNFMSYu_13nethsm_pkcs117backend7sessionNtB4_7Session14decrypt_update
FNDA:497,_RNvMs_NtNtCsggOPaNFMSYu_13nethsm_pkcs117backend7sessionNtB4_7Session10get_object
FNDA:36,_RNvMNtNtCsggOPaNFMSYu_13nethsm_pkcs117backend7sessionNtB2_14SessionManager3new
FNDA:1,_RNvMs_NtNtCsggOPaNFMSYu_13nethsm_pkcs117backend7sessionNtB4_7Session7encrypt
FNDA:1,_RNCNvMs_NtNtCsggOPaNFMSYu_13nethsm_pkcs117backend7sessionNtB6_7Session12encrypt_init0Ba_
FNDA:1,_RNCNCNCNvMs_NtNtCsggOPaNFMSYu_13nethsm_pkcs117backend7sessionNtBa_7Session13delete_objects0_000Be_
FNDA:1057,_RNCNCNvMs_NtNtCsggOPaNFMSYu_13nethsm_pkcs117backend7sessionNtB8_7Session8find_key0s1_0Bc_
FNDA:12,_RNCNvMs_NtNtCsggOPaNFMSYu_13nethsm_pkcs117backend7sessionNtB6_7Session12decrypt_init0Ba_
FNDA:30,_RNCNvMs_NtNtCsggOPaNFMSYu_13nethsm_pkcs117backend7sessionNtB6_7Session14fetch_all_keys0Ba_
FNDA:19,_RNCNCNvMs_NtNtCsggOPaNFMSYu_13nethsm_pkcs117backend7sessionNtB8_7Session14fetch_all_keys0s0_0Bc_
FNDA:78,_RNCNvMs_NtNtCsggOPaNFMSYu_13nethsm_pkcs117backend7sessionNtB6_7Session8find_key0Ba_
FNDA:467,_RNCNCNvMs_NtNtCsggOPaNFMSYu_13nethsm_pkcs117backend7sessionNtB8_7Session8find_key0s2_0Bc_
FNDA:21,_RNCNvMs_NtNtCsggOPaNFMSYu_13nethsm_pkcs117backend7sessionNtB6_7Session9sign_init0Ba_
FNDA:859,_RNCNCNvMs_NtNtCsggOPaNFMSYu_13nethsm_pkcs117backend7sessionNtB8_7Session8find_key00Bc_
FNDA:0,_RNCNvMNtNtCsggOPaNFMSYu_13nethsm_pkcs117backend7sessionNtB4_14SessionManager24delete_all_slot_sessions0B8_
FNDA:0,_RNCNvMs_NtNtCsggOPaNFMSYu_13nethsm_pkcs117backend7sessionNtB6_7Session13delete_objects_0Ba_
FNDA:1,_RNCNvMs_NtNtCsggOPaNFMSYu_13nethsm_pkcs117backend7sessionNtB6_7Session13delete_objects1_0Ba_
FNDA:1,_RNCNvMs_NtNtCsggOPaNFMSYu_13nethsm_pkcs117backend7sessionNtB6_7Session13delete_objects0_0Ba_
FNDA:53,_RNCNCNCNvMs_NtNtCsggOPaNFMSYu_13nethsm_pkcs117backend7sessionNtBa_7Session8find_key000Be_
FNDA:0,_RNCNCNvMs_NtNtCsggOPaNFMSYu_13nethsm_pkcs117backend7sessionNtB8_7Session14fetch_all_keys0s1_0Bc_
FNDA:0,_RNCNCNvMs_NtNtCsggOPaNFMSYu_13nethsm_pkcs117backend7sessionNtB8_7Session14fetch_all_keys0s2_0Bc_
FNDA:497,_RNCNvMs_NtNtCsggOPaNFMSYu_13nethsm_pkcs117backend7sessionNtB6_7Session10get_object0Ba_
FNDA:40,_RNCNCNvMs_NtNtCsggOPaNFMSYu_13nethsm_pkcs117backend7sessionNtB8_7Session8find_key0s0_0Bc_
FNDA:4,_RNCNvMs_NtNtCsggOPaNFMSYu_13nethsm_pkcs117backend7sessionNtB6_7Session13create_object0Ba_
FNDA:1,_RNCNCNCNvMs_NtNtCsggOPaNFMSYu_13nethsm_pkcs117backend7sessionNtBa_7Session14fetch_all_keys0s_00Be_
FNDA:1,_RNCNvMs_NtNtCsggOPaNFMSYu_13nethsm_pkcs117backend7sessionNtB6_7Session13delete_object0Ba_
FNDA:0,_RNCNCNCNvMs_NtNtCsggOPaNFMSYu_13nethsm_pkcs117backend7sessionNtBa_7Session13delete_objects_000Be_
FNDA:27,_RNCNCNvMs_NtNtCsggOPaNFMSYu_13nethsm_pkcs117backend7sessionNtB8_7Session8find_key0s_0Bc_
FNDA:957,_RNCNCNvMs_NtNtCsggOPaNFMSYu_13nethsm_pkcs117backend7sessionNtB8_7Session14fetch_all_keys00Bc_
FNDA:0,_RNvXs1_NtNtCsggOPaNFMSYu_13nethsm_pkcs117backend7sessionNtB5_7SessionNtNtCskl7yHyHAUN_4core3fmt5Debug3fmt
FNDA:0,_RNvXs0_NtNtCsggOPaNFMSYu_13nethsm_pkcs117backend7sessionNtB5_14SessionManagerNtNtCskl7yHyHAUN_4core3fmt5Debug3fmt
FNDA:0,_RNCNCNvMs_NtNtCsjTLMFSz4sfV_13nethsm_pkcs117backend7sessionNtB8_7Session8find_key0s0_0Bc_
FNDA:0,_RNCNCNCNvMs_NtNtCsjTLMFSz4sfV_13nethsm_pkcs117backend7sessionNtBa_7Session13delete_objects_000Be_
FNDA:0,_RNCNvMs_NtNtCsjTLMFSz4sfV_13nethsm_pkcs117backend7sessionNtB6_7Session13create_object0Ba_
FNDA:0,_RNCNvMs_NtNtCsjTLMFSz4sfV_13nethsm_pkcs117backend7sessionNtB6_7Session13delete_object0Ba_
FNDA:0,_RNCNCNvMs_NtNtCsjTLMFSz4sfV_13nethsm_pkcs117backend7sessionNtB8_7Session14fetch_all_keys0s1_0Bc_
FNDA:0,_RNCNvMs_NtNtCsjTLMFSz4sfV_13nethsm_pkcs117backend7sessionNtB6_7Session14fetch_all_keys0Ba_
FNDA:0,_RNCNCNvMs_NtNtCsjTLMFSz4sfV_13nethsm_pkcs117backend7sessionNtB8_7Session8find_key0s_0Bc_
FNDA:0,_RNCNCNvMs_NtNtCsjTLMFSz4sfV_13nethsm_pkcs117backend7sessionNtB8_7Session14fetch_all_keys00Bc_
FNDA:0,_RNCNCNvMs_NtNtCsjTLMFSz4sfV_13nethsm_pkcs117backend7sessionNtB8_7Session14fetch_all_keys0s2_0Bc_
FNDA:0,_RNCNvMs_NtNtCsjTLMFSz4sfV_13nethsm_pkcs117backend7sessionNtB6_7Session13delete_objects1_0Ba_
FNDA:0,_RNCNCNvMs_NtNtCsjTLMFSz4sfV_13nethsm_pkcs117backend7sessionNtB8_7Session8find_key00Bc_
FNDA:0,_RNCNCNCNvMs_NtNtCsjTLMFSz4sfV_13nethsm_pkcs117backend7sessionNtBa_7Session14fetch_all_keys0s_00Be_
FNDA:0,_RNCNCNCNvMs_NtNtCsjTLMFSz4sfV_13nethsm_pkcs117backend7sessionNtBa_7Session8find_key000Be_
FNDA:0,_RNCNCNvMs_NtNtCsjTLMFSz4sfV_13nethsm_pkcs117backend7sessionNtB8_7Session14fetch_all_keys0s0_0Bc_
FNDA:0,_RNCNvMs_NtNtCsjTLMFSz4sfV_13nethsm_pkcs117backend7sessionNtB6_7Session13delete_objects0_0Ba_
FNDA:0,_RNCNvMs_NtNtCsjTLMFSz4sfV_13nethsm_pkcs117backend7sessionNtB6_7Session10get_object0Ba_
FNDA:0,_RNCNvMs_NtNtCsjTLMFSz4sfV_13nethsm_pkcs117backend7sessionNtB6_7Session8find_key0Ba_
FNDA:0,_RNCNCNvMs_NtNtCsjTLMFSz4sfV_13nethsm_pkcs117backend7sessionNtB8_7Session8find_key0s2_0Bc_
FNDA:0,_RNCNvMs_NtNtCsjTLMFSz4sfV_13nethsm_pkcs117backend7sessionNtB6_7Session9sign_init0Ba_
FNDA:0,_RNCNvMs_NtNtCsjTLMFSz4sfV_13nethsm_pkcs117backend7sessionNtB6_7Session13delete_objects_0Ba_
FNDA:0,_RNCNvMNtNtCsjTLMFSz4sfV_13nethsm_pkcs117backend7sessionNtB4_14SessionManager24delete_all_slot_sessions0B8_
FNDA:0,_RNCNvMs_NtNtCsjTLMFSz4sfV_13nethsm_pkcs117backend7sessionNtB6_7Session12encrypt_init0Ba_
FNDA:0,_RNCNCNvMs_NtNtCsjTLMFSz4sfV_13nethsm_pkcs117backend7sessionNtB8_7Session8find_key0s1_0Bc_
FNDA:0,_RNCNCNCNvMs_NtNtCsjTLMFSz4sfV_13nethsm_pkcs117backend7sessionNtBa_7Session13delete_objects0_000Be_
FNDA:0,_RNCNvMs_NtNtCsjTLMFSz4sfV_13nethsm_pkcs117backend7sessionNtB6_7Session12decrypt_init0Ba_
FNDA:0,_RNvXs1_NtNtCsjTLMFSz4sfV_13nethsm_pkcs117backend7sessionNtB5_7SessionNtNtCskl7yHyHAUN_4core3fmt5Debug3fmt
FNDA:0,_RNvXs0_NtNtCsjTLMFSz4sfV_13nethsm_pkcs117backend7sessionNtB5_14SessionManagerNtNtCskl7yHyHAUN_4core3fmt5Debug3fmt
FNDA:0,_RNvMs_NtNtCsjTLMFSz4sfV_13nethsm_pkcs117backend7sessionNtB4_7Session9enum_init
FNDA:0,_RNvMs_NtNtCsjTLMFSz4sfV_13nethsm_pkcs117backend7sessionNtB4_7Session12encrypt_init
FNDA:0,_RNvMs_NtNtCsjTLMFSz4sfV_13nethsm_pkcs117backend7sessionNtB4_7Session30decrypt_theoretical_final_size
FNDA:0,_RNvMs_NtNtCsjTLMFSz4sfV_13nethsm_pkcs117backend7sessionNtB4_7Session13decrypt_clear
FNDA:0,_RNvMs_NtNtCsjTLMFSz4sfV_13nethsm_pkcs117backend7sessionNtB4_7Session10get_object
FNDA:0,_RNvMs_NtNtCsjTLMFSz4sfV_13nethsm_pkcs117backend7sessionNtB4_7Session14fetch_all_keys
FNDA:0,_RNvMs_NtNtCsjTLMFSz4sfV_13nethsm_pkcs117backend7sessionNtB4_7Session13create_object
FNDA:0,_RNvMs_NtNtCsjTLMFSz4sfV_13nethsm_pkcs117backend7sessionNtB4_7Session13delete_object
FNDA:0,_RNvMs_NtNtCsjTLMFSz4sfV_13nethsm_pkcs117backend7sessionNtB4_7Session12generate_key
FNDA:0,_RNvMs_NtNtCsjTLMFSz4sfV_13nethsm_pkcs117backend7sessionNtB4_7Session11sign_update
FNDA:0,_RNvMNtNtCsjTLMFSz4sfV_13nethsm_pkcs117backend7sessionNtB2_14SessionManager11get_session
FNDA:0,_RNvMs_NtNtCsjTLMFSz4sfV_13nethsm_pkcs117backend7sessionNtB4_7Session3new
FNDA:0,_RNvMs_NtNtCsjTLMFSz4sfV_13nethsm_pkcs117backend7sessionNtB4_7Session10enum_final
FNDA:0,_RNvMs_NtNtCsjTLMFSz4sfV_13nethsm_pkcs117backend7sessionNtB4_7Session4sign
FNDA:0,_RNvMNtNtCsjTLMFSz4sfV_13nethsm_pkcs117backend7sessionNtB2_14SessionManager14delete_session
FNDA:0,_RNvMs_NtNtCsjTLMFSz4sfV_13nethsm_pkcs117backend7sessionNtB4_7Session16encrypt_add_data
FNDA:0,_RNvMs_NtNtCsjTLMFSz4sfV_13nethsm_pkcs117backend7sessionNtB4_7Session12decrypt_init
FNDA:0,_RNvMs_NtNtCsjTLMFSz4sfV_13nethsm_pkcs117backend7sessionNtB4_7Session7decrypt
FNDA:0,_RNvMs_NtNtCsjTLMFSz4sfV_13nethsm_pkcs117backend7sessionNtB4_7Session8find_key
FNDA:0,_RNvMs_NtNtCsjTLMFSz4sfV_13nethsm_pkcs117backend7sessionNtB4_7Session9sign_init
FNDA:0,_RNvMs_NtNtCsjTLMFSz4sfV_13nethsm_pkcs117backend7sessionNtB4_7Session10sign_clear
FNDA:0,_RNvMNtNtCsjTLMFSz4sfV_13nethsm_pkcs117backend7sessionNtB2_14SessionManager24delete_all_slot_sessions
FNDA:0,_RNvMs_NtNtCsjTLMFSz4sfV_13nethsm_pkcs117backend7sessionNtB4_7Session6logout
FNDA:0,_RNvMs_NtNtCsjTLMFSz4sfV_13nethsm_pkcs117backend7sessionNtB4_7Session21sign_theoretical_size
FNDA:0,_RNvMNtNtCsjTLMFSz4sfV_13nethsm_pkcs117backend7sessionNtB2_14SessionManager14create_session
FNDA:0,_RNvMs_NtNtCsjTLMFSz4sfV_13nethsm_pkcs117backend7sessionNtB4_7Session13encrypt_final
FNDA:0,_RNvMs_NtNtCsjTLMFSz4sfV_13nethsm_pkcs117backend7sessionNtB4_7Session15enum_next_chunk
FNDA:0,_RNvMs_NtNtCsjTLMFSz4sfV_13nethsm_pkcs117backend7sessionNtB4_7Session10sign_final
FNDA:0,_RNvMNtNtCsjTLMFSz4sfV_13nethsm_pkcs117backend7sessionNtB2_14SessionManager15get_session_mut
FNDA:0,_RNvMs_NtNtCsjTLMFSz4sfV_13nethsm_pkcs117backend7sessionNtB4_7Session11get_ck_info
FNDA:0,_RNvMs_NtNtCsjTLMFSz4sfV_13nethsm_pkcs117backend7sessionNtB4_7Session22encrypt_available_data
FNDA:0,_RNvMs_NtNtCsjTLMFSz4sfV_13nethsm_pkcs117backend7sessionNtB4_7Session13encrypt_clear
FNDA:0,_RNvMs_NtNtCsjTLMFSz4sfV_13nethsm_pkcs117backend7sessionNtB4_7Session24decrypt_theoretical_size
FNDA:0,_RNvMs_NtNtCsjTLMFSz4sfV_13nethsm_pkcs117backend7sessionNtB4_7Session13decrypt_final
FNDA:0,_RNvMs_NtNtCsjTLMFSz4sfV_13nethsm_pkcs117backend7sessionNtB4_7Session14encrypt_update
FNDA:0,_RNvMs_NtNtCsjTLMFSz4sfV_13nethsm_pkcs117backend7sessionNtB4_7Session5login
FNDA:0,_RNvMs_NtNtCsjTLMFSz4sfV_13nethsm_pkcs117backend7sessionNtB4_7Session14decrypt_update
FNDA:0,_RNvMNtNtCsjTLMFSz4sfV_13nethsm_pkcs117backend7sessionNtB2_14SessionManager3new
FNDA:0,_RNvMs_NtNtCsjTLMFSz4sfV_13nethsm_pkcs117backend7sessionNtB4_7Session7encrypt
FNF:66
FNH:54
DA:28,0
DA:35,36
DA:36,36
DA:37,36
DA:38,36
DA:39,36
DA:40,36
DA:42,42
DA:43,42
DA:44,42
DA:45,42
DA:46,42
DA:47,42
DA:48,42
DA:49,42
DA:50,42
DA:51,42
DA:52,42
DA:53,42
DA:54,42
DA:56,4
DA:57,4
DA:58,4
DA:60,1043
DA:61,1043
DA:62,1043
DA:64,41
DA:65,41
DA:66,41
DA:67,41
DA:68,41
DA:69,41
DA:71,0
DA:72,0
DA:73,0
DA:74,0
DA:75,0
DA:76,0
DA:77,0
DA:78,0
DA:79,0
DA:80,0
DA:81,0
DA:84,0
DA:98,42
DA:99,42
DA:100,42
DA:101,42
DA:102,42
DA:103,42
DA:104,42
DA:105,42
DA:106,42
DA:107,42
DA:108,42
DA:109,42
DA:110,42
DA:111,42
DA:112,42
DA:113,42
DA:114,42
DA:115,42
DA:116,42
DA:117,4
DA:118,4
DA:119,4
DA:120,4
DA:121,4
DA:122,4
DA:123,4
DA:124,4
DA:125,4
DA:126,4
DA:128,13
DA:129,13
DA:130,13
DA:133,0
DA:134,0
DA:135,0
DA:136,0
DA:138,78
DA:139,78
DA:140,0
DA:141,78
DA:143,78
DA:145,78
DA:146,78
DA:148,288
DA:149,288
DA:150,288
DA:151,0
DA:153,288
DA:154,78
DA:155,78
DA:156,78
DA:158,21
DA:159,21
DA:160,21
DA:161,21
DA:162,21
DA:163,21
DA:164,0
DA:165,21
DA:166,21
DA:167,21
DA:168,21
DA:172,21
DA:173,21
DA:174,21
DA:175,21
DA:178,0
DA:179,0
DA:182,21
DA:184,21
DA:185,21
DA:186,21
DA:187,21
DA:188,21
DA:190,20
DA:191,21
DA:193,22
DA:194,22
DA:195,22
DA:196,22
DA:197,22
DA:198,22
DA:199,22
DA:200,22
DA:202,22
DA:203,22
DA:204,22
DA:205,22
DA:206,22
DA:208,22
DA:209,22
DA:210,22
DA:212,20
DA:213,20
DA:214,20
DA:215,20
DA:216,20
DA:218,20
DA:219,20
DA:222,19
DA:223,19
DA:224,19
DA:226,20
DA:227,20
DA:228,20
DA:230,1
DA:231,1
DA:232,1
DA:233,1
DA:234,1
DA:235,1
DA:236,0
DA:237,1
DA:241,1
DA:242,1
DA:243,1
DA:244,1
DA:247,0
DA:248,0
DA:251,1
DA:253,1
DA:254,1
DA:255,1
DA:256,1
DA:257,1
DA:259,1
DA:260,1
DA:262,1
DA:263,1
DA:264,1
DA:265,1
DA:266,1
DA:268,1
DA:269,1
DA:270,1
DA:272,0
DA:273,0
DA:274,0
DA:275,0
DA:276,0
DA:278,0
DA:279,0
DA:282,0
DA:283,0
DA:284,0
DA:286,1
DA:287,1
DA:288,1
DA:289,1
DA:290,1
DA:292,1
DA:293,1
DA:296,1
DA:297,1
DA:298,1
DA:300,1
DA:301,1
DA:302,1
DA:304,12
DA:305,12
DA:306,12
DA:307,12
DA:308,12
DA:309,12
DA:310,0
DA:311,12
DA:315,12
DA:316,12
DA:317,12
DA:318,12
DA:321,0
DA:322,0
DA:325,12
DA:327,12
DA:328,12
DA:329,12
DA:330,12
DA:331,12
DA:333,12
DA:334,12
DA:337,12
DA:338,12
DA:339,12
DA:340,12
DA:341,12
DA:343,12
DA:344,12
DA:345,12
DA:348,12
DA:349,12
DA:350,12
DA:352,0
DA:353,0
DA:354,0
DA:355,0
DA:356,0
DA:358,0
DA:359,0
DA:361,12
DA:362,12
DA:363,12
DA:364,12
DA:365,12
DA:367,12
DA:368,12
DA:371,12
DA:372,12
DA:373,12
DA:375,12
DA:376,12
DA:377,12
DA:379,497
DA:380,497
DA:381,497
DA:383,497
DA:384,497
DA:385,497
DA:387,78
DA:388,78
DA:389,78
DA:390,78
DA:391,78
DA:392,48
DA:394,48
DA:395,48
DA:396,48
DA:397,48
DA:398,859
DA:399,53
DA:400,859
DA:401,48
DA:402,48
DA:403,48
DA:404,48
DA:405,48
DA:406,48
DA:408,21
DA:413,21
DA:414,21
DA:415,21
DA:416,21
DA:417,21
DA:418,21
DA:419,21
DA:420,37
DA:421,21
DA:422,40
DA:423,21
DA:424,0
DA:426,21
DA:427,21
DA:429,0
DA:430,0
DA:431,0
DA:432,0
DA:433,0
DA:434,0
DA:435,0
DA:437,0
DA:438,0
DA:439,0
DA:442,21
DA:443,27
DA:444,48
DA:447,30
DA:448,0
DA:450,78
DA:451,1057
DA:452,78
DA:454,467
DA:455,78
DA:457,30
DA:458,30
DA:459,30
DA:460,30
DA:462,30
DA:464,30
DA:465,29
DA:466,29
DA:467,957
DA:468,29
DA:469,1
DA:470,1
DA:471,1
DA:472,1
DA:473,1
DA:474,1
DA:476,0
DA:477,0
DA:478,0
DA:479,1
DA:481,1
DA:482,1
DA:483,1
DA:484,2
DA:485,1
DA:486,1
DA:487,2
DA:490,1
DA:491,1
DA:492,1
DA:493,1
DA:494,1
DA:495,1
DA:499,1
DA:505,20
DA:506,19
DA:507,19
DA:508,19
DA:509,19
DA:510,19
DA:511,19
DA:512,19
DA:513,74
DA:515,19
DA:516,19
DA:517,19
DA:518,19
DA:520,0
DA:523,1
DA:524,0
DA:525,0
DA:526,0
DA:527,0
DA:529,0
DA:530,0
DA:531,0
DA:532,0
DA:533,0
DA:534,0
DA:535,0
DA:536,0
DA:539,0
DA:540,0
DA:541,0
DA:542,0
DA:544,1
DA:546,20
DA:547,19
DA:548,19
DA:551,1
DA:552,1
DA:553,1
DA:554,1
DA:555,30
DA:557,4
DA:558,4
DA:559,4
DA:560,4
DA:561,4
DA:562,4
DA:563,4
DA:565,0
DA:566,4
DA:567,4
DA:568,4
DA:570,4
DA:572,4
DA:573,4
DA:574,4
DA:575,4
DA:576,0
DA:577,8
DA:579,4
DA:581,1
DA:582,1
DA:583,0
DA:584,1
DA:588,1
DA:589,1
DA:590,1
DA:591,1
DA:593,0
DA:595,1
DA:597,1
DA:599,1
DA:601,0
DA:602,0
DA:603,0
DA:604,0
DA:605,0
DA:606,0
DA:607,0
DA:608,0
DA:609,0
DA:610,0
DA:613,1
DA:614,1
DA:615,1
DA:616,1
DA:617,1
DA:618,1
DA:619,1
DA:620,1
DA:621,1
DA:622,1
DA:624,0
DA:625,0
DA:626,0
DA:629,1
DA:630,1
DA:631,1
DA:632,1
DA:634,0
DA:636,1
DA:638,1
DA:639,1
DA:641,7
DA:642,7
DA:643,7
DA:644,7
DA:645,7
DA:646,7
DA:647,7
DA:648,0
DA:649,7
DA:650,7
DA:651,7
DA:652,7
DA:653,7
DA:654,7
DA:655,7
DA:656,7
DA:657,7
DA:658,7
BRF:0
BRH:0
LF:505
LH:400
end_of_record
SF:/home/sautax/git/nethsm-pkcs11/pkcs11/src/backend/sign.rs
FN:24,_RNvMNtNtCsggOPaNFMSYu_13nethsm_pkcs117backend4signNtB2_7SignCtx4init
FN:63,_RNvMNtNtCsggOPaNFMSYu_13nethsm_pkcs117backend4signNtB2_7SignCtx6update
FN:67,_RNvMNtNtCsggOPaNFMSYu_13nethsm_pkcs117backend4signNtB2_7SignCtx10sign_final
FN:136,_RNvMNtNtCsggOPaNFMSYu_13nethsm_pkcs117backend4signNtB2_7SignCtx20get_theoretical_size
FN:31,_RNCNvMNtNtCsggOPaNFMSYu_13nethsm_pkcs117backend4signNtB4_7SignCtx4init0B8_
FN:86,_RNCNvMNtNtCsggOPaNFMSYu_13nethsm_pkcs117backend4signNtB4_7SignCtx10sign_final0B8_
FN:89,_RNCNCNCNvMNtNtCsggOPaNFMSYu_13nethsm_pkcs117backend4signNtB8_7SignCtx10sign_final000Bc_
FN:14,_RNvXs_NtNtCsggOPaNFMSYu_13nethsm_pkcs117backend4signNtB4_7SignCtxNtNtCskl7yHyHAUN_4core5clone5Clone5cloneB8_
FN:14,_RNvXs0_NtNtCsggOPaNFMSYu_13nethsm_pkcs117backend4signNtB5_7SignCtxNtNtCskl7yHyHAUN_4core3fmt5Debug3fmt
FN:24,_RNvMNtNtCsjTLMFSz4sfV_13nethsm_pkcs117backend4signNtB2_7SignCtx4init
FN:63,_RNvMNtNtCsjTLMFSz4sfV_13nethsm_pkcs117backend4signNtB2_7SignCtx6update
FN:67,_RNvMNtNtCsjTLMFSz4sfV_13nethsm_pkcs117backend4signNtB2_7SignCtx10sign_final
FN:136,_RNvMNtNtCsjTLMFSz4sfV_13nethsm_pkcs117backend4signNtB2_7SignCtx20get_theoretical_size
FN:14,_RNvXs0_NtNtCsjTLMFSz4sfV_13nethsm_pkcs117backend4signNtB5_7SignCtxNtNtCskl7yHyHAUN_4core3fmt5Debug3fmt
FN:14,_RNvXs_NtNtCsjTLMFSz4sfV_13nethsm_pkcs117backend4signNtB4_7SignCtxNtNtCskl7yHyHAUN_4core5clone5Clone5cloneB8_
FN:31,_RNCNvMNtNtCsjTLMFSz4sfV_13nethsm_pkcs117backend4signNtB4_7SignCtx4init0B8_
FN:86,_RNCNvMNtNtCsjTLMFSz4sfV_13nethsm_pkcs117backend4signNtB4_7SignCtx10sign_final0B8_
FN:89,_RNCNCNCNvMNtNtCsjTLMFSz4sfV_13nethsm_pkcs117backend4signNtB8_7SignCtx10sign_final000Bc_
FNDA:21,_RNvMNtNtCsggOPaNFMSYu_13nethsm_pkcs117backend4signNtB2_7SignCtx4init
FNDA:22,_RNvMNtNtCsggOPaNFMSYu_13nethsm_pkcs117backend4signNtB2_7SignCtx6update
FNDA:20,_RNvMNtNtCsggOPaNFMSYu_13nethsm_pkcs117backend4signNtB2_7SignCtx10sign_final
FNDA:22,_RNvMNtNtCsggOPaNFMSYu_13nethsm_pkcs117backend4signNtB2_7SignCtx20get_theoretical_size
FNDA:1,_RNCNvMNtNtCsggOPaNFMSYu_13nethsm_pkcs117backend4signNtB4_7SignCtx4init0B8_
FNDA:20,_RNCNvMNtNtCsggOPaNFMSYu_13nethsm_pkcs117backend4signNtB4_7SignCtx10sign_final0B8_
FNDA:20,_RNCNCNCNvMNtNtCsggOPaNFMSYu_13nethsm_pkcs117backend4signNtB8_7SignCtx10sign_final000Bc_
FNDA:0,_RNvXs_NtNtCsggOPaNFMSYu_13nethsm_pkcs117backend4signNtB4_7SignCtxNtNtCskl7yHyHAUN_4core5clone5Clone5cloneB8_
FNDA:0,_RNvXs0_NtNtCsggOPaNFMSYu_13nethsm_pkcs117backend4signNtB5_7SignCtxNtNtCskl7yHyHAUN_4core3fmt5Debug3fmt
FNDA:0,_RNvMNtNtCsjTLMFSz4sfV_13nethsm_pkcs117backend4signNtB2_7SignCtx4init
FNDA:0,_RNvMNtNtCsjTLMFSz4sfV_13nethsm_pkcs117backend4signNtB2_7SignCtx6update
FNDA:0,_RNvMNtNtCsjTLMFSz4sfV_13nethsm_pkcs117backend4signNtB2_7SignCtx10sign_final
FNDA:0,_RNvMNtNtCsjTLMFSz4sfV_13nethsm_pkcs117backend4signNtB2_7SignCtx20get_theoretical_size
FNDA:0,_RNvXs0_NtNtCsjTLMFSz4sfV_13nethsm_pkcs117backend4signNtB5_7SignCtxNtNtCskl7yHyHAUN_4core3fmt5Debug3fmt
FNDA:0,_RNvXs_NtNtCsjTLMFSz4sfV_13nethsm_pkcs117backend4signNtB4_7SignCtxNtNtCskl7yHyHAUN_4core5clone5Clone5cloneB8_
FNDA:0,_RNCNvMNtNtCsjTLMFSz4sfV_13nethsm_pkcs117backend4signNtB4_7SignCtx4init0B8_
FNDA:0,_RNCNvMNtNtCsjTLMFSz4sfV_13nethsm_pkcs117backend4signNtB4_7SignCtx10sign_final0B8_
FNDA:0,_RNCNCNCNvMNtNtCsjTLMFSz4sfV_13nethsm_pkcs117backend4signNtB8_7SignCtx10sign_final000Bc_
FNF:9
FNH:7
DA:14,0
DA:24,21
DA:25,21
DA:27,21
DA:28,0
DA:29,21
DA:31,21
DA:32,1
DA:33,1
DA:34,21
DA:36,20
DA:37,20
DA:39,0
DA:40,0
DA:44,20
DA:45,20
DA:47,20
DA:48,0
DA:49,0
DA:52,0
DA:53,20
DA:54,20
DA:55,20
DA:56,20
DA:57,20
DA:58,20
DA:59,20
DA:60,20
DA:61,20
DA:62,21
DA:63,22
DA:64,22
DA:65,22
DA:67,20
DA:69,20
DA:70,9
DA:71,9
DA:72,9
DA:73,9
DA:74,9
DA:76,11
DA:79,20
DA:80,20
DA:81,20
DA:82,20
DA:84,20
DA:86,20
DA:87,20
DA:88,20
DA:89,20
DA:90,20
DA:91,20
DA:92,20
DA:93,20
DA:94,20
DA:95,20
DA:96,20
DA:97,20
DA:98,36
DA:99,20
DA:100,20
DA:101,20
DA:102,36
DA:103,20
DA:105,20
DA:108,20
DA:109,9
DA:111,9
DA:112,9
DA:113,9
DA:114,9
DA:115,9
DA:116,9
DA:117,9
DA:118,9
DA:119,0
DA:120,9
DA:121,9
DA:122,9
DA:123,9
DA:124,9
DA:125,9
DA:126,9
DA:127,9
DA:128,9
DA:129,9
DA:130,9
DA:131,11
DA:133,20
DA:134,20
DA:136,22
DA:137,22
DA:138,22
BRF:0
BRH:0
LF:100
LH:91
end_of_record
SF:/home/sautax/git/nethsm-pkcs11/pkcs11/src/backend/slot.rs
FN:5,_RNvNtNtCsggOPaNFMSYu_13nethsm_pkcs117backend4slot8get_slot
FN:5,_RNvNtNtCsjTLMFSz4sfV_13nethsm_pkcs117backend4slot8get_slot
FNDA:245,_RNvNtNtCsggOPaNFMSYu_13nethsm_pkcs117backend4slot8get_slot
FNDA:0,_RNvNtNtCsjTLMFSz4sfV_13nethsm_pkcs117backend4slot8get_slot
FNF:1
FNH:1
DA:5,245
DA:6,245
DA:7,245
DA:8,245
DA:9,245
DA:10,245
DA:11,245
BRF:0
BRH:0
LF:7
LH:7
end_of_record
SF:/home/sautax/git/nethsm-pkcs11/pkcs11/src/config/config_file.rs
FN:109,_RINvXNvXs0_NvXNvNtNtCsggOPaNFMSYu_13nethsm_pkcs116config11config_files7_1__NtBe_10UserConfigNtNtCshUF5v59RDfN_5serde2de11Deserialize11deserializeNtB9_9___VisitorNtB1u_7Visitor9visit_mapNtB3_17___DeserializeWithB1s_11deserializeQNtNtCsaJZAZs7ESo2_10serde_yaml2de22DeserializerFromEventsEBi_
FN:99,_RINvXNvNtNtCsggOPaNFMSYu_13nethsm_pkcs116config11config_files5_1__NtB5_10SlotConfigNtNtCshUF5v59RDfN_5serde2de11Deserialize11deserializeQNtNtCsaJZAZs7ESo2_10serde_yaml2de22DeserializerFromEventsEB9_
FN:79,_RINvXs_NvXNvNtNtCsggOPaNFMSYu_13nethsm_pkcs116config11config_files1_1__NtBa_9P11ConfigNtNtCshUF5v59RDfN_5serde2de11Deserialize11deserializeNtB5_7___FieldB1m_11deserializeQNtNtCsaJZAZs7ESo2_10serde_yaml2de22DeserializerFromEventsEBe_
FN:90,_RINvXNvXNvNtNtCsggOPaNFMSYu_13nethsm_pkcs116config11config_files3_1__NtB8_14InstanceConfigNtNtCshUF5v59RDfN_5serde2de11Deserialize11deserializeNtB3_14___FieldVisitorNtB1s_7Visitor9visit_strNtNtCsaJZAZs7ESo2_10serde_yaml5error5ErrorEBc_
FN:57,_RINvXs_NvXNvNtNtCsggOPaNFMSYu_13nethsm_pkcs116config11config_files_1__NtBa_8LogLevelNtNtCshUF5v59RDfN_5serde2de11Deserialize11deserializeNtB5_7___FieldB1k_11deserializeQNtNtCsaJZAZs7ESo2_10serde_yaml2de22DeserializerFromEventsEBe_
FN:99,_RINvXNvXNvNtNtCsggOPaNFMSYu_13nethsm_pkcs116config11config_files5_1__NtB8_10SlotConfigNtNtCshUF5v59RDfN_5serde2de11Deserialize11deserializeNtB3_14___FieldVisitorNtB1o_7Visitor9visit_strNtNtCsaJZAZs7ESo2_10serde_yaml5error5ErrorEBc_
FN:99,_RINvXs0_NvXNvNtNtCsggOPaNFMSYu_13nethsm_pkcs116config11config_files5_1__NtBb_10SlotConfigNtNtCshUF5v59RDfN_5serde2de11Deserialize11deserializeNtB6_9___VisitorNtB1r_7Visitor9visit_mapNtNtCsaJZAZs7ESo2_10serde_yaml2de9MapAccessEBf_
FN:109,_RINvXs_NvXNvNtNtCsggOPaNFMSYu_13nethsm_pkcs116config11config_files7_1__NtBa_10UserConfigNtNtCshUF5v59RDfN_5serde2de11Deserialize11deserializeNtB5_7___FieldB1o_11deserializeQNtNtCsaJZAZs7ESo2_10serde_yaml2de22DeserializerFromEventsEBe_
FN:79,_RINvXNvNtNtCsggOPaNFMSYu_13nethsm_pkcs116config11config_files1_1__NtB5_9P11ConfigNtNtCshUF5v59RDfN_5serde2de11Deserialize11deserializeNtNtCsaJZAZs7ESo2_10serde_yaml2de12DeserializerEB9_
FN:90,_RINvXs0_NvXNvNtNtCsggOPaNFMSYu_13nethsm_pkcs116config11config_files3_1__NtBb_14InstanceConfigNtNtCshUF5v59RDfN_5serde2de11Deserialize11deserializeNtB6_9___VisitorNtB1v_7Visitor9visit_mapQNtNtCsaJZAZs7ESo2_10serde_yaml2de9MapAccessEBf_
FN:57,_RINvXs_NvXNvNtNtCsggOPaNFMSYu_13nethsm_pkcs116config11config_files_1__NtBa_8LogLevelNtNtCshUF5v59RDfN_5serde2de11Deserialize11deserializeNtB5_7___FieldB1k_11deserializeINtNtB1m_5value15StrDeserializerNtNtCsaJZAZs7ESo2_10serde_yaml5error5ErrorEEBe_
FN:109,_RINvXs0_NvXNvNtNtCsggOPaNFMSYu_13nethsm_pkcs116config11config_files7_1__NtBb_10UserConfigNtNtCshUF5v59RDfN_5serde2de11Deserialize11deserializeNtB6_9___VisitorNtB1r_7Visitor9visit_mapNtNtCsaJZAZs7ESo2_10serde_yaml2de9MapAccessEBf_
FN:109,_RINvXNvNtNtCsggOPaNFMSYu_13nethsm_pkcs116config11config_files7_1__NtB5_10UserConfigNtNtCshUF5v59RDfN_5serde2de11Deserialize11deserializeQNtNtCsaJZAZs7ESo2_10serde_yaml2de22DeserializerFromEventsEB9_
FN:109,_RINvXNvXNvNtNtCsggOPaNFMSYu_13nethsm_pkcs116config11config_files7_1__NtB8_10UserConfigNtNtCshUF5v59RDfN_5serde2de11Deserialize11deserializeNtB3_14___FieldVisitorNtB1o_7Visitor9visit_strNtNtCsaJZAZs7ESo2_10serde_yaml5error5ErrorEBc_
FN:57,_RINvXs0_NvXNvNtNtCsggOPaNFMSYu_13nethsm_pkcs116config11config_files_1__NtBb_8LogLevelNtNtCshUF5v59RDfN_5serde2de11Deserialize11deserializeNtB6_9___VisitorNtB1n_7Visitor10visit_enumNtNtCsaJZAZs7ESo2_10serde_yaml2de17UnitVariantAccessEBf_
FN:79,_RINvXs0_NvXNvNtNtCsggOPaNFMSYu_13nethsm_pkcs116config11config_files1_1__NtBb_9P11ConfigNtNtCshUF5v59RDfN_5serde2de11Deserialize11deserializeNtB6_9___VisitorNtB1p_7Visitor9visit_mapQNtNtCsaJZAZs7ESo2_10serde_yaml2de9MapAccessEBf_
FN:79,_RINvXNvXNvNtNtCsggOPaNFMSYu_13nethsm_pkcs116config11config_files1_1__NtB8_9P11ConfigNtNtCshUF5v59RDfN_5serde2de11Deserialize11deserializeNtB3_14___FieldVisitorNtB1m_7Visitor9visit_strNtNtCsaJZAZs7ESo2_10serde_yaml5error5ErrorEBc_
FN:90,_RINvXs_NvXNvNtNtCsggOPaNFMSYu_13nethsm_pkcs116config11config_files3_1__NtBa_14InstanceConfigNtNtCshUF5v59RDfN_5serde2de11Deserialize11deserializeNtB5_7___FieldB1s_11deserializeQNtNtCsaJZAZs7ESo2_10serde_yaml2de22DeserializerFromEventsEBe_
FN:99,_RINvXs_NvXNvNtNtCsggOPaNFMSYu_13nethsm_pkcs116config11config_files5_1__NtBa_10SlotConfigNtNtCshUF5v59RDfN_5serde2de11Deserialize11deserializeNtB5_7___FieldB1o_11deserializeQNtNtCsaJZAZs7ESo2_10serde_yaml2de22DeserializerFromEventsEBe_
FN:57,_RINvXNvXNvNtNtCsggOPaNFMSYu_13nethsm_pkcs116config11config_files_1__NtB8_8LogLevelNtNtCshUF5v59RDfN_5serde2de11Deserialize11deserializeNtB3_14___FieldVisitorNtB1k_7Visitor9visit_strNtNtCsaJZAZs7ESo2_10serde_yaml5error5ErrorEBc_
FN:99,_RINvXs0_NvXNvNtNtCsggOPaNFMSYu_13nethsm_pkcs116config11config_files5_1__NtBb_10SlotConfigNtNtCshUF5v59RDfN_5serde2de11Deserialize11deserializeNtB6_9___VisitorNtB1r_7Visitor9visit_mapQNtNtCsaJZAZs7ESo2_10serde_yaml2de9MapAccessEBf_
FN:90,_RINvXs0_NvXNvNtNtCsggOPaNFMSYu_13nethsm_pkcs116config11config_files3_1__NtBb_14InstanceConfigNtNtCshUF5v59RDfN_5serde2de11Deserialize11deserializeNtB6_9___VisitorNtB1v_7Visitor9visit_mapNtNtCsaJZAZs7ESo2_10serde_yaml2de9MapAccessEBf_
FN:123,_RINvNtNtCsggOPaNFMSYu_13nethsm_pkcs116config11config_file20deserialize_passwordQNtNtCsaJZAZs7ESo2_10serde_yaml2de22DeserializerFromEventsEB6_
FN:109,_RINvXs0_NvXNvNtNtCsggOPaNFMSYu_13nethsm_pkcs116config11config_files7_1__NtBb_10UserConfigNtNtCshUF5v59RDfN_5serde2de11Deserialize11deserializeNtB6_9___VisitorNtB1r_7Visitor9visit_mapQNtNtCsaJZAZs7ESo2_10serde_yaml2de9MapAccessEBf_
FN:57,_RINvXs0_NvXNvNtNtCsggOPaNFMSYu_13nethsm_pkcs116config11config_files_1__NtBb_8LogLevelNtNtCshUF5v59RDfN_5serde2de11Deserialize11deserializeNtB6_9___VisitorNtB1n_7Visitor10visit_enumNtNtCsaJZAZs7ESo2_10serde_yaml2de10EnumAccessEBf_
FN:90,_RINvXNvNtNtCsggOPaNFMSYu_13nethsm_pkcs116config11config_files3_1__NtB5_14InstanceConfigNtNtCshUF5v59RDfN_5serde2de11Deserialize11deserializeQNtNtCsaJZAZs7ESo2_10serde_yaml2de22DeserializerFromEventsEB9_
FN:57,_RINvXNvNtNtCsggOPaNFMSYu_13nethsm_pkcs116config11config_files_1__NtB5_8LogLevelNtNtCshUF5v59RDfN_5serde2de11Deserialize11deserializeQNtNtCsaJZAZs7ESo2_10serde_yaml2de22DeserializerFromEventsEB9_
FN:79,_RINvXs0_NvXNvNtNtCsggOPaNFMSYu_13nethsm_pkcs116config11config_files1_1__NtBb_9P11ConfigNtNtCshUF5v59RDfN_5serde2de11Deserialize11deserializeNtB6_9___VisitorNtB1p_7Visitor9visit_mapNtNtCsaJZAZs7ESo2_10serde_yaml2de9MapAccessEBf_
FN:99,_RNvXNvXNvNtNtCsggOPaNFMSYu_13nethsm_pkcs116config11config_files5_1__NtB7_10SlotConfigNtNtCshUF5v59RDfN_5serde2de11Deserialize11deserializeNtB2_14___FieldVisitorNtB1n_7Visitor9expecting
FN:79,_RNvXNvXNvNtNtCsggOPaNFMSYu_13nethsm_pkcs116config11config_files1_1__NtB7_9P11ConfigNtNtCshUF5v59RDfN_5serde2de11Deserialize11deserializeNtB2_14___FieldVisitorNtB1l_7Visitor9expecting
FN:79,_RNvXs4_NtNtCsggOPaNFMSYu_13nethsm_pkcs116config11config_fileNtB5_9P11ConfigNtCsfdkSD4awTsu_5merge5Merge5merge
FN:57,_RNvXNvXNvNtNtCsggOPaNFMSYu_13nethsm_pkcs116config11config_files_1__NtB7_8LogLevelNtNtCshUF5v59RDfN_5serde2de11Deserialize11deserializeNtB2_14___FieldVisitorNtB1j_7Visitor9expecting
FN:109,_RNvXNvXNvNtNtCsggOPaNFMSYu_13nethsm_pkcs116config11config_files7_1__NtB7_10UserConfigNtNtCshUF5v59RDfN_5serde2de11Deserialize11deserializeNtB2_14___FieldVisitorNtB1n_7Visitor9expecting
FN:79,_RNvXs0_NvXNvNtNtCsggOPaNFMSYu_13nethsm_pkcs116config11config_files1_1__NtBa_9P11ConfigNtNtCshUF5v59RDfN_5serde2de11Deserialize11deserializeNtB5_9___VisitorNtB1o_7Visitor9expecting
FN:79,_RNvXs5_NtNtCsggOPaNFMSYu_13nethsm_pkcs116config11config_fileNtB5_9P11ConfigNtNtCskl7yHyHAUN_4core7default7Default7defaultB9_
FN:90,_RNvXs0_NvXNvNtNtCsggOPaNFMSYu_13nethsm_pkcs116config11config_files3_1__NtBa_14InstanceConfigNtNtCshUF5v59RDfN_5serde2de11Deserialize11deserializeNtB5_9___VisitorNtB1u_7Visitor9expecting
FN:4,_RNvXs_NtNtCsggOPaNFMSYu_13nethsm_pkcs116config11config_fileNtB4_11ConfigErrorNtNtCskl7yHyHAUN_4core3fmt5Debug3fmt
FN:99,_RNvXs0_NvXNvNtNtCsggOPaNFMSYu_13nethsm_pkcs116config11config_files5_1__NtBa_10SlotConfigNtNtCshUF5v59RDfN_5serde2de11Deserialize11deserializeNtB5_9___VisitorNtB1q_7Visitor9expecting
FN:109,_RNvXsa_NtNtCsggOPaNFMSYu_13nethsm_pkcs116config11config_fileNtB5_10UserConfigNtNtCskl7yHyHAUN_4core3fmt5Debug3fmt
FN:109,_RNvXs0_NvXNvNtNtCsggOPaNFMSYu_13nethsm_pkcs116config11config_files7_1__NtBa_10UserConfigNtNtCshUF5v59RDfN_5serde2de11Deserialize11deserializeNtB5_9___VisitorNtB1q_7Visitor9expecting
FN:14,_RNvNtNtCsggOPaNFMSYu_13nethsm_pkcs116config11config_file18read_configuration
FN:109,_RNvXsb_NtNtCsggOPaNFMSYu_13nethsm_pkcs116config11config_fileNtB5_10UserConfigNtNtCskl7yHyHAUN_4core5clone5Clone5cloneB9_
FN:90,_RNvXNvXNvNtNtCsggOPaNFMSYu_13nethsm_pkcs116config11config_files3_1__NtB7_14InstanceConfigNtNtCshUF5v59RDfN_5serde2de11Deserialize11deserializeNtB2_14___FieldVisitorNtB1r_7Visitor9expecting
FN:67,_RNvXNtNtCsggOPaNFMSYu_13nethsm_pkcs116config11config_fileNtCsa3tXtOGMFa2_3log11LevelFilterINtNtCskl7yHyHAUN_4core7convert4FromRNtB2_8LogLevelE4from
FN:109,_RINvXs0_NvXNvNtNtCsggOPaNFMSYu_13nethsm_pkcs116config11config_files7_1__NtBb_10UserConfigNtNtCshUF5v59RDfN_5serde2de11Deserialize11deserializeNtB6_9___VisitorNtB1r_7Visitor9visit_seqpEBf_
FN:109,_RINvXNvXNvNtNtCsggOPaNFMSYu_13nethsm_pkcs116config11config_files7_1__NtB8_10UserConfigNtNtCshUF5v59RDfN_5serde2de11Deserialize11deserializeNtB3_14___FieldVisitorNtB1o_7Visitor9visit_u64pEBc_
FN:99,_RINvXs0_NvXNvNtNtCsggOPaNFMSYu_13nethsm_pkcs116config11config_files5_1__NtBb_10SlotConfigNtNtCshUF5v59RDfN_5serde2de11Deserialize11deserializeNtB6_9___VisitorNtB1r_7Visitor9visit_seqpEBf_
FN:57,_RINvXNvNtNtCsggOPaNFMSYu_13nethsm_pkcs116config11config_file1__NtB5_8LogLevelNtNtCshUF5v59RDfN_5serde3ser9Serialize9serializepEB9_
FN:90,_RNvXs7_NtNtCsggOPaNFMSYu_13nethsm_pkcs116config11config_fileNtB5_14InstanceConfigNtNtCskl7yHyHAUN_4core5clone5Clone5cloneB9_
FN:90,_RINvXNvXNvNtNtCsggOPaNFMSYu_13nethsm_pkcs116config11config_files3_1__NtB8_14InstanceConfigNtNtCshUF5v59RDfN_5serde2de11Deserialize11deserializeNtB3_14___FieldVisitorNtB1s_7Visitor9visit_u64pEBc_
FN:109,_RINvXNvXNvNtNtCsggOPaNFMSYu_13nethsm_pkcs116config11config_files7_1__NtB8_10UserConfigNtNtCshUF5v59RDfN_5serde2de11Deserialize11deserializeNtB3_14___FieldVisitorNtB1o_7Visitor11visit_bytespEBc_
FN:109,_RINvXNvXs0_NvXNvNtNtCsggOPaNFMSYu_13nethsm_pkcs116config11config_files7_1__NtBe_10UserConfigNtNtCshUF5v59RDfN_5serde2de11Deserialize11deserializeNtB9_9___VisitorNtB1u_7Visitor9visit_seqNtB3_17___DeserializeWithB1s_11deserializepEBi_
FN:79,_RINvXs0_NvXNvNtNtCsggOPaNFMSYu_13nethsm_pkcs116config11config_files1_1__NtBb_9P11ConfigNtNtCshUF5v59RDfN_5serde2de11Deserialize11deserializeNtB6_9___VisitorNtB1p_7Visitor9visit_seqpEBf_
FN:57,_RINvXNvXNvNtNtCsggOPaNFMSYu_13nethsm_pkcs116config11config_files_1__NtB8_8LogLevelNtNtCshUF5v59RDfN_5serde2de11Deserialize11deserializeNtB3_14___FieldVisitorNtB1k_7Visitor9visit_u64pEBc_
FN:79,_RINvXNvNtNtCsggOPaNFMSYu_13nethsm_pkcs116config11config_files0_1__NtB5_9P11ConfigNtNtCshUF5v59RDfN_5serde3ser9Serialize9serializepEB9_
FN:57,_RINvXNvXNvNtNtCsggOPaNFMSYu_13nethsm_pkcs116config11config_files_1__NtB8_8LogLevelNtNtCshUF5v59RDfN_5serde2de11Deserialize11deserializeNtB3_14___FieldVisitorNtB1k_7Visitor11visit_bytespEBc_
FN:90,_RINvXNvNtNtCsggOPaNFMSYu_13nethsm_pkcs116config11config_files2_1__NtB5_14InstanceConfigNtNtCshUF5v59RDfN_5serde3ser9Serialize9serializepEB9_
FN:57,_RNvXs0_NtNtCsggOPaNFMSYu_13nethsm_pkcs116config11config_fileNtB5_8LogLevelNtNtCskl7yHyHAUN_4core3fmt5Debug3fmt
FN:99,_RINvXNvXNvNtNtCsggOPaNFMSYu_13nethsm_pkcs116config11config_files5_1__NtB8_10SlotConfigNtNtCshUF5v59RDfN_5serde2de11Deserialize11deserializeNtB3_14___FieldVisitorNtB1o_7Visitor9visit_u64pEBc_
FN:90,_RNvXs6_NtNtCsggOPaNFMSYu_13nethsm_pkcs116config11config_fileNtB5_14InstanceConfigNtNtCskl7yHyHAUN_4core3fmt5Debug3fmt
FN:90,_RINvXNvXNvNtNtCsggOPaNFMSYu_13nethsm_pkcs116config11config_files3_1__NtB8_14InstanceConfigNtNtCshUF5v59RDfN_5serde2de11Deserialize11deserializeNtB3_14___FieldVisitorNtB1s_7Visitor11visit_bytespEBc_
FN:79,_RNvXs3_NtNtCsggOPaNFMSYu_13nethsm_pkcs116config11config_fileNtB5_9P11ConfigNtNtCskl7yHyHAUN_4core5clone5Clone5cloneB9_
FN:99,_RNvXs8_NtNtCsggOPaNFMSYu_13nethsm_pkcs116config11config_fileNtB5_10SlotConfigNtNtCskl7yHyHAUN_4core3fmt5Debug3fmt
FN:99,_RINvXNvXNvNtNtCsggOPaNFMSYu_13nethsm_pkcs116config11config_files5_1__NtB8_10SlotConfigNtNtCshUF5v59RDfN_5serde2de11Deserialize11deserializeNtB3_14___FieldVisitorNtB1o_7Visitor11visit_bytespEBc_
FN:109,_RINvXNvNtNtCsggOPaNFMSYu_13nethsm_pkcs116config11config_files6_1__NtB5_10UserConfigNtNtCshUF5v59RDfN_5serde3ser9Serialize9serializepEB9_
FN:57,_RNvXs0_NvXNvNtNtCsggOPaNFMSYu_13nethsm_pkcs116config11config_files_1__NtBa_8LogLevelNtNtCshUF5v59RDfN_5serde2de11Deserialize11deserializeNtB5_9___VisitorNtB1m_7Visitor9expecting
FN:79,_RINvXNvXNvNtNtCsggOPaNFMSYu_13nethsm_pkcs116config11config_files1_1__NtB8_9P11ConfigNtNtCshUF5v59RDfN_5serde2de11Deserialize11deserializeNtB3_14___FieldVisitorNtB1m_7Visitor9visit_u64pEBc_
FN:79,_RNvXs2_NtNtCsggOPaNFMSYu_13nethsm_pkcs116config11config_fileNtB5_9P11ConfigNtNtCskl7yHyHAUN_4core3fmt5Debug3fmt
FN:99,_RNvXs9_NtNtCsggOPaNFMSYu_13nethsm_pkcs116config11config_fileNtB5_10SlotConfigNtNtCskl7yHyHAUN_4core5clone5Clone5cloneB9_
FN:79,_RINvXNvXNvNtNtCsggOPaNFMSYu_13nethsm_pkcs116config11config_files1_1__NtB8_9P11ConfigNtNtCshUF5v59RDfN_5serde2de11Deserialize11deserializeNtB3_14___FieldVisitorNtB1m_7Visitor11visit_bytespEBc_
FN:90,_RINvXs0_NvXNvNtNtCsggOPaNFMSYu_13nethsm_pkcs116config11config_files3_1__NtBb_14InstanceConfigNtNtCshUF5v59RDfN_5serde2de11Deserialize11deserializeNtB6_9___VisitorNtB1v_7Visitor9visit_seqpEBf_
FN:57,_RNvXs1_NtNtCsggOPaNFMSYu_13nethsm_pkcs116config11config_fileNtB5_8LogLevelNtNtCskl7yHyHAUN_4core5clone5Clone5cloneB9_
FN:99,_RINvXNvNtNtCsggOPaNFMSYu_13nethsm_pkcs116config11config_files4_1__NtB5_10SlotConfigNtNtCshUF5v59RDfN_5serde3ser9Serialize9serializepEB9_
FN:109,_RNCINvXs0_NvXNvNtNtCsggOPaNFMSYu_13nethsm_pkcs116config11config_files7_1__NtBd_10UserConfigNtNtCshUF5v59RDfN_5serde2de11Deserialize11deserializeNtB8_9___VisitorNtB1t_7Visitor9visit_seqpE0Bh_
FN:67,_RNvXNtNtCsjTLMFSz4sfV_13nethsm_pkcs116config11config_fileNtCsa3tXtOGMFa2_3log11LevelFilterINtNtCskl7yHyHAUN_4core7convert4FromRNtB2_8LogLevelE4from
FN:57,_RNvXs0_NtNtCsjTLMFSz4sfV_13nethsm_pkcs116config11config_fileNtB5_8LogLevelNtNtCskl7yHyHAUN_4core3fmt5Debug3fmt
FN:57,_RINvXNvNtNtCsjTLMFSz4sfV_13nethsm_pkcs116config11config_file1__NtB5_8LogLevelNtNtCshUF5v59RDfN_5serde3ser9Serialize9serializepEB9_
FN:109,_RNCINvXs0_NvXNvNtNtCsjTLMFSz4sfV_13nethsm_pkcs116config11config_files7_1__NtBd_10UserConfigNtNtCshUF5v59RDfN_5serde2de11Deserialize11deserializeNtB8_9___VisitorNtB1t_7Visitor9visit_seqpE0Bh_
FN:109,_RINvXs0_NvXNvNtNtCsjTLMFSz4sfV_13nethsm_pkcs116config11config_files7_1__NtBb_10UserConfigNtNtCshUF5v59RDfN_5serde2de11Deserialize11deserializeNtB6_9___VisitorNtB1r_7Visitor9visit_seqpEBf_
FN:99,_RNvXs9_NtNtCsjTLMFSz4sfV_13nethsm_pkcs116config11config_fileNtB5_10SlotConfigNtNtCskl7yHyHAUN_4core5clone5Clone5cloneB9_
FN:99,_RINvXNvXNvNtNtCsjTLMFSz4sfV_13nethsm_pkcs116config11config_files5_1__NtB8_10SlotConfigNtNtCshUF5v59RDfN_5serde2de11Deserialize11deserializeNtB3_14___FieldVisitorNtB1o_7Visitor9visit_u64pEBc_
FN:57,_RINvXNvXNvNtNtCsjTLMFSz4sfV_13nethsm_pkcs116config11config_files_1__NtB8_8LogLevelNtNtCshUF5v59RDfN_5serde2de11Deserialize11deserializeNtB3_14___FieldVisitorNtB1k_7Visitor11visit_bytespEBc_
FN:90,_RINvXNvNtNtCsjTLMFSz4sfV_13nethsm_pkcs116config11config_files2_1__NtB5_14InstanceConfigNtNtCshUF5v59RDfN_5serde3ser9Serialize9serializepEB9_
FN:57,_RNvXs1_NtNtCsjTLMFSz4sfV_13nethsm_pkcs116config11config_fileNtB5_8LogLevelNtNtCskl7yHyHAUN_4core5clone5Clone5cloneB9_
FN:99,_RINvXNvNtNtCsjTLMFSz4sfV_13nethsm_pkcs116config11config_files4_1__NtB5_10SlotConfigNtNtCshUF5v59RDfN_5serde3ser9Serialize9serializepEB9_
FN:90,_RINvXs0_NvXNvNtNtCsjTLMFSz4sfV_13nethsm_pkcs116config11config_files3_1__NtBb_14InstanceConfigNtNtCshUF5v59RDfN_5serde2de11Deserialize11deserializeNtB6_9___VisitorNtB1v_7Visitor9visit_seqpEBf_
FN:57,_RNvXs0_NvXNvNtNtCsjTLMFSz4sfV_13nethsm_pkcs116config11config_files_1__NtBa_8LogLevelNtNtCshUF5v59RDfN_5serde2de11Deserialize11deserializeNtB5_9___VisitorNtB1m_7Visitor9expecting
FN:90,_RINvXNvXNvNtNtCsjTLMFSz4sfV_13nethsm_pkcs116config11config_files3_1__NtB8_14InstanceConfigNtNtCshUF5v59RDfN_5serde2de11Deserialize11deserializeNtB3_14___FieldVisitorNtB1s_7Visitor11visit_bytespEBc_
FN:109,_RINvXNvNtNtCsjTLMFSz4sfV_13nethsm_pkcs116config11config_files6_1__NtB5_10UserConfigNtNtCshUF5v59RDfN_5serde3ser9Serialize9serializepEB9_
FN:90,_RNvXs7_NtNtCsjTLMFSz4sfV_13nethsm_pkcs116config11config_fileNtB5_14InstanceConfigNtNtCskl7yHyHAUN_4core5clone5Clone5cloneB9_
FN:57,_RINvXNvXNvNtNtCsjTLMFSz4sfV_13nethsm_pkcs116config11config_files_1__NtB8_8LogLevelNtNtCshUF5v59RDfN_5serde2de11Deserialize11deserializeNtB3_14___FieldVisitorNtB1k_7Visitor9visit_u64pEBc_
FN:90,_RNvXs6_NtNtCsjTLMFSz4sfV_13nethsm_pkcs116config11config_fileNtB5_14InstanceConfigNtNtCskl7yHyHAUN_4core3fmt5Debug3fmt
FN:79,_RNvXs3_NtNtCsjTLMFSz4sfV_13nethsm_pkcs116config11config_fileNtB5_9P11ConfigNtNtCskl7yHyHAUN_4core5clone5Clone5cloneB9_
FN:99,_RNvXs8_NtNtCsjTLMFSz4sfV_13nethsm_pkcs116config11config_fileNtB5_10SlotConfigNtNtCskl7yHyHAUN_4core3fmt5Debug3fmt
FN:90,_RINvXNvXNvNtNtCsjTLMFSz4sfV_13nethsm_pkcs116config11config_files3_1__NtB8_14InstanceConfigNtNtCshUF5v59RDfN_5serde2de11Deserialize11deserializeNtB3_14___FieldVisitorNtB1s_7Visitor9visit_u64pEBc_
FN:99,_RINvXs0_NvXNvNtNtCsjTLMFSz4sfV_13nethsm_pkcs116config11config_files5_1__NtBb_10SlotConfigNtNtCshUF5v59RDfN_5serde2de11Deserialize11deserializeNtB6_9___VisitorNtB1r_7Visitor9visit_seqpEBf_
FN:79,_RINvXNvNtNtCsjTLMFSz4sfV_13nethsm_pkcs116config11config_files0_1__NtB5_9P11ConfigNtNtCshUF5v59RDfN_5serde3ser9Serialize9serializepEB9_
FN:109,_RINvXNvXNvNtNtCsjTLMFSz4sfV_13nethsm_pkcs116config11config_files7_1__NtB8_10UserConfigNtNtCshUF5v59RDfN_5serde2de11Deserialize11deserializeNtB3_14___FieldVisitorNtB1o_7Visitor9visit_u64pEBc_
FN:99,_RINvXNvXNvNtNtCsjTLMFSz4sfV_13nethsm_pkcs116config11config_files5_1__NtB8_10SlotConfigNtNtCshUF5v59RDfN_5serde2de11Deserialize11deserializeNtB3_14___FieldVisitorNtB1o_7Visitor11visit_bytespEBc_
FN:109,_RINvXNvXs0_NvXNvNtNtCsjTLMFSz4sfV_13nethsm_pkcs116config11config_files7_1__NtBe_10UserConfigNtNtCshUF5v59RDfN_5serde2de11Deserialize11deserializeNtB9_9___VisitorNtB1u_7Visitor9visit_seqNtB3_17___DeserializeWithB1s_11deserializepEBi_
FN:79,_RNvXs2_NtNtCsjTLMFSz4sfV_13nethsm_pkcs116config11config_fileNtB5_9P11ConfigNtNtCskl7yHyHAUN_4core3fmt5Debug3fmt
FN:109,_RINvXNvXNvNtNtCsjTLMFSz4sfV_13nethsm_pkcs116config11config_files7_1__NtB8_10UserConfigNtNtCshUF5v59RDfN_5serde2de11Deserialize11deserializeNtB3_14___FieldVisitorNtB1o_7Visitor11visit_bytespEBc_
FN:79,_RINvXs0_NvXNvNtNtCsjTLMFSz4sfV_13nethsm_pkcs116config11config_files1_1__NtBb_9P11ConfigNtNtCshUF5v59RDfN_5serde2de11Deserialize11deserializeNtB6_9___VisitorNtB1p_7Visitor9visit_seqpEBf_
FN:79,_RINvXNvXNvNtNtCsjTLMFSz4sfV_13nethsm_pkcs116config11config_files1_1__NtB8_9P11ConfigNtNtCshUF5v59RDfN_5serde2de11Deserialize11deserializeNtB3_14___FieldVisitorNtB1m_7Visitor11visit_bytespEBc_
FN:79,_RINvXNvXNvNtNtCsjTLMFSz4sfV_13nethsm_pkcs116config11config_files1_1__NtB8_9P11ConfigNtNtCshUF5v59RDfN_5serde2de11Deserialize11deserializeNtB3_14___FieldVisitorNtB1m_7Visitor9visit_u64pEBc_
FN:90,_RNvXNvXNvNtNtCsjTLMFSz4sfV_13nethsm_pkcs116config11config_files3_1__NtB7_14InstanceConfigNtNtCshUF5v59RDfN_5serde2de11Deserialize11deserializeNtB2_14___FieldVisitorNtB1r_7Visitor9expecting
FN:99,_RNvXNvXNvNtNtCsjTLMFSz4sfV_13nethsm_pkcs116config11config_files5_1__NtB7_10SlotConfigNtNtCshUF5v59RDfN_5serde2de11Deserialize11deserializeNtB2_14___FieldVisitorNtB1n_7Visitor9expecting
FN:90,_RNvXs0_NvXNvNtNtCsjTLMFSz4sfV_13nethsm_pkcs116config11config_files3_1__NtBa_14InstanceConfigNtNtCshUF5v59RDfN_5serde2de11Deserialize11deserializeNtB5_9___VisitorNtB1u_7Visitor9expecting
FN:79,_RNvXs4_NtNtCsjTLMFSz4sfV_13nethsm_pkcs116config11config_fileNtB5_9P11ConfigNtCsfdkSD4awTsu_5merge5Merge5merge
FN:99,_RNvXs0_NvXNvNtNtCsjTLMFSz4sfV_13nethsm_pkcs116config11config_files5_1__NtBa_10SlotConfigNtNtCshUF5v59RDfN_5serde2de11Deserialize11deserializeNtB5_9___VisitorNtB1q_7Visitor9expecting
FN:79,_RNvXs5_NtNtCsjTLMFSz4sfV_13nethsm_pkcs116config11config_fileNtB5_9P11ConfigNtNtCskl7yHyHAUN_4core7default7Default7defaultB9_
FN:109,_RNvXs0_NvXNvNtNtCsjTLMFSz4sfV_13nethsm_pkcs116config11config_files7_1__NtBa_10UserConfigNtNtCshUF5v59RDfN_5serde2de11Deserialize11deserializeNtB5_9___VisitorNtB1q_7Visitor9expecting
FN:4,_RNvXs_NtNtCsjTLMFSz4sfV_13nethsm_pkcs116config11config_fileNtB4_11ConfigErrorNtNtCskl7yHyHAUN_4core3fmt5Debug3fmt
FN:109,_RNvXsa_NtNtCsjTLMFSz4sfV_13nethsm_pkcs116config11config_fileNtB5_10UserConfigNtNtCskl7yHyHAUN_4core3fmt5Debug3fmt
FN:109,_RNvXNvXNvNtNtCsjTLMFSz4sfV_13nethsm_pkcs116config11config_files7_1__NtB7_10UserConfigNtNtCshUF5v59RDfN_5serde2de11Deserialize11deserializeNtB2_14___FieldVisitorNtB1n_7Visitor9expecting
FN:79,_RNvXs0_NvXNvNtNtCsjTLMFSz4sfV_13nethsm_pkcs116config11config_files1_1__NtBa_9P11ConfigNtNtCshUF5v59RDfN_5serde2de11Deserialize11deserializeNtB5_9___VisitorNtB1o_7Visitor9expecting
FN:57,_RNvXNvXNvNtNtCsjTLMFSz4sfV_13nethsm_pkcs116config11config_files_1__NtB7_8LogLevelNtNtCshUF5v59RDfN_5serde2de11Deserialize11deserializeNtB2_14___FieldVisitorNtB1j_7Visitor9expecting
FN:109,_RNvXsb_NtNtCsjTLMFSz4sfV_13nethsm_pkcs116config11config_fileNtB5_10UserConfigNtNtCskl7yHyHAUN_4core5clone5Clone5cloneB9_
FN:14,_RNvNtNtCsjTLMFSz4sfV_13nethsm_pkcs116config11config_file18read_configuration
FN:79,_RNvXNvXNvNtNtCsjTLMFSz4sfV_13nethsm_pkcs116config11config_files1_1__NtB7_9P11ConfigNtNtCshUF5v59RDfN_5serde2de11Deserialize11deserializeNtB2_14___FieldVisitorNtB1l_7Visitor9expecting
FN:57,_RINvXs_NvXNvNtNtCsjTLMFSz4sfV_13nethsm_pkcs116config11config_files_1__NtBa_8LogLevelNtNtCshUF5v59RDfN_5serde2de11Deserialize11deserializeNtB5_7___FieldB1k_11deserializeINtNtB1m_5value15StrDeserializerNtNtCsaJZAZs7ESo2_10serde_yaml5error5ErrorEEBe_
FN:109,_RINvXNvNtNtCsjTLMFSz4sfV_13nethsm_pkcs116config11config_files7_1__NtB5_10UserConfigNtNtCshUF5v59RDfN_5serde2de11Deserialize11deserializeQNtNtCsaJZAZs7ESo2_10serde_yaml2de22DeserializerFromEventsEB9_
FN:90,_RINvXs_NvXNvNtNtCsjTLMFSz4sfV_13nethsm_pkcs116config11config_files3_1__NtBa_14InstanceConfigNtNtCshUF5v59RDfN_5serde2de11Deserialize11deserializeNtB5_7___FieldB1s_11deserializeQNtNtCsaJZAZs7ESo2_10serde_yaml2de22DeserializerFromEventsEBe_
FN:99,_RINvXs_NvXNvNtNtCsjTLMFSz4sfV_13nethsm_pkcs116config11config_files5_1__NtBa_10SlotConfigNtNtCshUF5v59RDfN_5serde2de11Deserialize11deserializeNtB5_7___FieldB1o_11deserializeQNtNtCsaJZAZs7ESo2_10serde_yaml2de22DeserializerFromEventsEBe_
FN:57,_RINvXs0_NvXNvNtNtCsjTLMFSz4sfV_13nethsm_pkcs116config11config_files_1__NtBb_8LogLevelNtNtCshUF5v59RDfN_5serde2de11Deserialize11deserializeNtB6_9___VisitorNtB1n_7Visitor10visit_enumNtNtCsaJZAZs7ESo2_10serde_yaml2de10EnumAccessEBf_
FN:123,_RINvNtNtCsjTLMFSz4sfV_13nethsm_pkcs116config11config_file20deserialize_passwordQNtNtCsaJZAZs7ESo2_10serde_yaml2de22DeserializerFromEventsEB6_
FN:99,_RINvXNvNtNtCsjTLMFSz4sfV_13nethsm_pkcs116config11config_files5_1__NtB5_10SlotConfigNtNtCshUF5v59RDfN_5serde2de11Deserialize11deserializeQNtNtCsaJZAZs7ESo2_10serde_yaml2de22DeserializerFromEventsEB9_
FN:79,_RINvXs0_NvXNvNtNtCsjTLMFSz4sfV_13nethsm_pkcs116config11config_files1_1__NtBb_9P11ConfigNtNtCshUF5v59RDfN_5serde2de11Deserialize11deserializeNtB6_9___VisitorNtB1p_7Visitor9visit_mapNtNtCsaJZAZs7ESo2_10serde_yaml2de9MapAccessEBf_
FN:90,_RINvXNvXNvNtNtCsjTLMFSz4sfV_13nethsm_pkcs116config11config_files3_1__NtB8_14InstanceConfigNtNtCshUF5v59RDfN_5serde2de11Deserialize11deserializeNtB3_14___FieldVisitorNtB1s_7Visitor9visit_strNtNtCsaJZAZs7ESo2_10serde_yaml5error5ErrorEBc_
FN:57,_RINvXNvNtNtCsjTLMFSz4sfV_13nethsm_pkcs116config11config_files_1__NtB5_8LogLevelNtNtCshUF5v59RDfN_5serde2de11Deserialize11deserializeQNtNtCsaJZAZs7ESo2_10serde_yaml2de22DeserializerFromEventsEB9_
FN:109,_RINvXNvXNvNtNtCsjTLMFSz4sfV_13nethsm_pkcs116config11config_files7_1__NtB8_10UserConfigNtNtCshUF5v59RDfN_5serde2de11Deserialize11deserializeNtB3_14___FieldVisitorNtB1o_7Visitor9visit_strNtNtCsaJZAZs7ESo2_10serde_yaml5error5ErrorEBc_
FN:109,_RINvXs0_NvXNvNtNtCsjTLMFSz4sfV_13nethsm_pkcs116config11config_files7_1__NtBb_10UserConfigNtNtCshUF5v59RDfN_5serde2de11Deserialize11deserializeNtB6_9___VisitorNtB1r_7Visitor9visit_mapQNtNtCsaJZAZs7ESo2_10serde_yaml2de9MapAccessEBf_
FN:90,_RINvXs0_NvXNvNtNtCsjTLMFSz4sfV_13nethsm_pkcs116config11config_files3_1__NtBb_14InstanceConfigNtNtCshUF5v59RDfN_5serde2de11Deserialize11deserializeNtB6_9___VisitorNtB1v_7Visitor9visit_mapNtNtCsaJZAZs7ESo2_10serde_yaml2de9MapAccessEBf_
FN:99,_RINvXs0_NvXNvNtNtCsjTLMFSz4sfV_13nethsm_pkcs116config11config_files5_1__NtBb_10SlotConfigNtNtCshUF5v59RDfN_5serde2de11Deserialize11deserializeNtB6_9___VisitorNtB1r_7Visitor9visit_mapNtNtCsaJZAZs7ESo2_10serde_yaml2de9MapAccessEBf_
FN:79,_RINvXs_NvXNvNtNtCsjTLMFSz4sfV_13nethsm_pkcs116config11config_files1_1__NtBa_9P11ConfigNtNtCshUF5v59RDfN_5serde2de11Deserialize11deserializeNtB5_7___FieldB1m_11deserializeQNtNtCsaJZAZs7ESo2_10serde_yaml2de22DeserializerFromEventsEBe_
FN:79,_RINvXNvNtNtCsjTLMFSz4sfV_13nethsm_pkcs116config11config_files1_1__NtB5_9P11ConfigNtNtCshUF5v59RDfN_5serde2de11Deserialize11deserializeNtNtCsaJZAZs7ESo2_10serde_yaml2de12DeserializerEB9_
FN:57,_RINvXs_NvXNvNtNtCsjTLMFSz4sfV_13nethsm_pkcs116config11config_files_1__NtBa_8LogLevelNtNtCshUF5v59RDfN_5serde2de11Deserialize11deserializeNtB5_7___FieldB1k_11deserializeQNtNtCsaJZAZs7ESo2_10serde_yaml2de22DeserializerFromEventsEBe_
FN:99,_RINvXNvXNvNtNtCsjTLMFSz4sfV_13nethsm_pkcs116config11config_files5_1__NtB8_10SlotConfigNtNtCshUF5v59RDfN_5serde2de11Deserialize11deserializeNtB3_14___FieldVisitorNtB1o_7Visitor9visit_strNtNtCsaJZAZs7ESo2_10serde_yaml5error5ErrorEBc_
FN:90,_RINvXNvNtNtCsjTLMFSz4sfV_13nethsm_pkcs116config11config_files3_1__NtB5_14InstanceConfigNtNtCshUF5v59RDfN_5serde2de11Deserialize11deserializeQNtNtCsaJZAZs7ESo2_10serde_yaml2de22DeserializerFromEventsEB9_
FN:57,_RINvXs0_NvXNvNtNtCsjTLMFSz4sfV_13nethsm_pkcs116config11config_files_1__NtBb_8LogLevelNtNtCshUF5v59RDfN_5serde2de11Deserialize11deserializeNtB6_9___VisitorNtB1n_7Visitor10visit_enumNtNtCsaJZAZs7ESo2_10serde_yaml2de17UnitVariantAccessEBf_
FN:79,_RINvXNvXNvNtNtCsjTLMFSz4sfV_13nethsm_pkcs116config11config_files1_1__NtB8_9P11ConfigNtNtCshUF5v59RDfN_5serde2de11Deserialize11deserializeNtB3_14___FieldVisitorNtB1m_7Visitor9visit_strNtNtCsaJZAZs7ESo2_10serde_yaml5error5ErrorEBc_
FN:79,_RINvXs0_NvXNvNtNtCsjTLMFSz4sfV_13nethsm_pkcs116config11config_files1_1__NtBb_9P11ConfigNtNtCshUF5v59RDfN_5serde2de11Deserialize11deserializeNtB6_9___VisitorNtB1p_7Visitor9visit_mapQNtNtCsaJZAZs7ESo2_10serde_yaml2de9MapAccessEBf_
FN:109,_RINvXNvXs0_NvXNvNtNtCsjTLMFSz4sfV_13nethsm_pkcs116config11config_files7_1__NtBe_10UserConfigNtNtCshUF5v59RDfN_5serde2de11Deserialize11deserializeNtB9_9___VisitorNtB1u_7Visitor9visit_mapNtB3_17___DeserializeWithB1s_11deserializeQNtNtCsaJZAZs7ESo2_10serde_yaml2de22DeserializerFromEventsEBi_
FN:57,_RINvXNvXNvNtNtCsjTLMFSz4sfV_13nethsm_pkcs116config11config_files_1__NtB8_8LogLevelNtNtCshUF5v59RDfN_5serde2de11Deserialize11deserializeNtB3_14___FieldVisitorNtB1k_7Visitor9visit_strNtNtCsaJZAZs7ESo2_10serde_yaml5error5ErrorEBc_
FN:109,_RINvXs_NvXNvNtNtCsjTLMFSz4sfV_13nethsm_pkcs116config11config_files7_1__NtBa_10UserConfigNtNtCshUF5v59RDfN_5serde2de11Deserialize11deserializeNtB5_7___FieldB1o_11deserializeQNtNtCsaJZAZs7ESo2_10serde_yaml2de22DeserializerFromEventsEBe_
FN:109,_RINvXs0_NvXNvNtNtCsjTLMFSz4sfV_13nethsm_pkcs116config11config_files7_1__NtBb_10UserConfigNtNtCshUF5v59RDfN_5serde2de11Deserialize11deserializeNtB6_9___VisitorNtB1r_7Visitor9visit_mapNtNtCsaJZAZs7ESo2_10serde_yaml2de9MapAccessEBf_
FN:90,_RINvXs0_NvXNvNtNtCsjTLMFSz4sfV_13nethsm_pkcs116config11config_files3_1__NtBb_14InstanceConfigNtNtCshUF5v59RDfN_5serde2de11Deserialize11deserializeNtB6_9___VisitorNtB1v_7Visitor9visit_mapQNtNtCsaJZAZs7ESo2_10serde_yaml2de9MapAccessEBf_
FN:99,_RINvXs0_NvXNvNtNtCsjTLMFSz4sfV_13nethsm_pkcs116config11config_files5_1__NtBb_10SlotConfigNtNtCshUF5v59RDfN_5serde2de11Deserialize11deserializeNtB6_9___VisitorNtB1r_7Visitor9visit_mapQNtNtCsaJZAZs7ESo2_10serde_yaml2de9MapAccessEBf_
FNDA:72,_RINvXNvXs0_NvXNvNtNtCsggOPaNFMSYu_13nethsm_pkcs116config11config_files7_1__NtBe_10UserConfigNtNtCshUF5v59RDfN_5serde2de11Deserialize11deserializeNtB9_9___VisitorNtB1u_7Visitor9visit_mapNtB3_17___DeserializeWithB1s_11deserializeQNtNtCsaJZAZs7ESo2_10serde_yaml2de22DeserializerFromEventsEBi_
FNDA:36,_RINvXNvNtNtCsggOPaNFMSYu_13nethsm_pkcs116config11config_files5_1__NtB5_10SlotConfigNtNtCshUF5v59RDfN_5serde2de11Deserialize11deserializeQNtNtCsaJZAZs7ESo2_10serde_yaml2de22DeserializerFromEventsEB9_
FNDA:36,_RINvXs_NvXNvNtNtCsggOPaNFMSYu_13nethsm_pkcs116config11config_files1_1__NtBa_9P11ConfigNtNtCshUF5v59RDfN_5serde2de11Deserialize11deserializeNtB5_7___FieldB1m_11deserializeQNtNtCsaJZAZs7ESo2_10serde_yaml2de22DeserializerFromEventsEBe_
FNDA:72,_RINvXNvXNvNtNtCsggOPaNFMSYu_13nethsm_pkcs116config11config_files3_1__NtB8_14InstanceConfigNtNtCshUF5v59RDfN_5serde2de11Deserialize11deserializeNtB3_14___FieldVisitorNtB1s_7Visitor9visit_strNtNtCsaJZAZs7ESo2_10serde_yaml5error5ErrorEBc_
FNDA:0,_RINvXs_NvXNvNtNtCsggOPaNFMSYu_13nethsm_pkcs116config11config_files_1__NtBa_8LogLevelNtNtCshUF5v59RDfN_5serde2de11Deserialize11deserializeNtB5_7___FieldB1k_11deserializeQNtNtCsaJZAZs7ESo2_10serde_yaml2de22DeserializerFromEventsEBe_
FNDA:180,_RINvXNvXNvNtNtCsggOPaNFMSYu_13nethsm_pkcs116config11config_files5_1__NtB8_10SlotConfigNtNtCshUF5v59RDfN_5serde2de11Deserialize11deserializeNtB3_14___FieldVisitorNtB1o_7Visitor9visit_strNtNtCsaJZAZs7ESo2_10serde_yaml5error5ErrorEBc_
FNDA:0,_RINvXs0_NvXNvNtNtCsggOPaNFMSYu_13nethsm_pkcs116config11config_files5_1__NtBb_10SlotConfigNtNtCshUF5v59RDfN_5serde2de11Deserialize11deserializeNtB6_9___VisitorNtB1r_7Visitor9visit_mapNtNtCsaJZAZs7ESo2_10serde_yaml2de9MapAccessEBf_
FNDA:144,_RINvXs_NvXNvNtNtCsggOPaNFMSYu_13nethsm_pkcs116config11config_files7_1__NtBa_10UserConfigNtNtCshUF5v59RDfN_5serde2de11Deserialize11deserializeNtB5_7___FieldB1o_11deserializeQNtNtCsaJZAZs7ESo2_10serde_yaml2de22DeserializerFromEventsEBe_
FNDA:36,_RINvXNvNtNtCsggOPaNFMSYu_13nethsm_pkcs116config11config_files1_1__NtB5_9P11ConfigNtNtCshUF5v59RDfN_5serde2de11Deserialize11deserializeNtNtCsaJZAZs7ESo2_10serde_yaml2de12DeserializerEB9_
FNDA:108,_RINvXs0_NvXNvNtNtCsggOPaNFMSYu_13nethsm_pkcs116config11config_files3_1__NtBb_14InstanceConfigNtNtCshUF5v59RDfN_5serde2de11Deserialize11deserializeNtB6_9___VisitorNtB1v_7Visitor9visit_mapQNtNtCsaJZAZs7ESo2_10serde_yaml2de9MapAccessEBf_
FNDA:0,_RINvXs_NvXNvNtNtCsggOPaNFMSYu_13nethsm_pkcs116config11config_files_1__NtBa_8LogLevelNtNtCshUF5v59RDfN_5serde2de11Deserialize11deserializeNtB5_7___FieldB1k_11deserializeINtNtB1m_5value15StrDeserializerNtNtCsaJZAZs7ESo2_10serde_yaml5error5ErrorEEBe_
FNDA:0,_RINvXs0_NvXNvNtNtCsggOPaNFMSYu_13nethsm_pkcs116config11config_files7_1__NtBb_10UserConfigNtNtCshUF5v59RDfN_5serde2de11Deserialize11deserializeNtB6_9___VisitorNtB1r_7Visitor9visit_mapNtNtCsaJZAZs7ESo2_10serde_yaml2de9MapAccessEBf_
FNDA:72,_RINvXNvNtNtCsggOPaNFMSYu_13nethsm_pkcs116config11config_files7_1__NtB5_10UserConfigNtNtCshUF5v59RDfN_5serde2de11Deserialize11deserializeQNtNtCsaJZAZs7ESo2_10serde_yaml2de22DeserializerFromEventsEB9_
FNDA:144,_RINvXNvXNvNtNtCsggOPaNFMSYu_13nethsm_pkcs116config11config_files7_1__NtB8_10UserConfigNtNtCshUF5v59RDfN_5serde2de11Deserialize11deserializeNtB3_14___FieldVisitorNtB1o_7Visitor9visit_strNtNtCsaJZAZs7ESo2_10serde_yaml5error5ErrorEBc_
FNDA:0,_RINvXs0_NvXNvNtNtCsggOPaNFMSYu_13nethsm_pkcs116config11config_files_1__NtBb_8LogLevelNtNtCshUF5v59RDfN_5serde2de11Deserialize11deserializeNtB6_9___VisitorNtB1n_7Visitor10visit_enumNtNtCsaJZAZs7ESo2_10serde_yaml2de17UnitVariantAccessEBf_
FNDA:72,_RINvXs0_NvXNvNtNtCsggOPaNFMSYu_13nethsm_pkcs116config11config_files1_1__NtBb_9P11ConfigNtNtCshUF5v59RDfN_5serde2de11Deserialize11deserializeNtB6_9___VisitorNtB1p_7Visitor9visit_mapQNtNtCsaJZAZs7ESo2_10serde_yaml2de9MapAccessEBf_
FNDA:36,_RINvXNvXNvNtNtCsggOPaNFMSYu_13nethsm_pkcs116config11config_files1_1__NtB8_9P11ConfigNtNtCshUF5v59RDfN_5serde2de11Deserialize11deserializeNtB3_14___FieldVisitorNtB1m_7Visitor9visit_strNtNtCsaJZAZs7ESo2_10serde_yaml5error5ErrorEBc_
FNDA:72,_RINvXs_NvXNvNtNtCsggOPaNFMSYu_13nethsm_pkcs116config11config_files3_1__NtBa_14InstanceConfigNtNtCshUF5v59RDfN_5serde2de11Deserialize11deserializeNtB5_7___FieldB1s_11deserializeQNtNtCsaJZAZs7ESo2_10serde_yaml2de22DeserializerFromEventsEBe_
FNDA:180,_RINvXs_NvXNvNtNtCsggOPaNFMSYu_13nethsm_pkcs116config11config_files5_1__NtBa_10SlotConfigNtNtCshUF5v59RDfN_5serde2de11Deserialize11deserializeNtB5_7___FieldB1o_11deserializeQNtNtCsaJZAZs7ESo2_10serde_yaml2de22DeserializerFromEventsEBe_
FNDA:0,_RINvXNvXNvNtNtCsggOPaNFMSYu_13nethsm_pkcs116config11config_files_1__NtB8_8LogLevelNtNtCshUF5v59RDfN_5serde2de11Deserialize11deserializeNtB3_14___FieldVisitorNtB1k_7Visitor9visit_strNtNtCsaJZAZs7ESo2_10serde_yaml5error5ErrorEBc_
FNDA:216,_RINvXs0_NvXNvNtNtCsggOPaNFMSYu_13nethsm_pkcs116config11config_files5_1__NtBb_10SlotConfigNtNtCshUF5v59RDfN_5serde2de11Deserialize11deserializeNtB6_9___VisitorNtB1r_7Visitor9visit_mapQNtNtCsaJZAZs7ESo2_10serde_yaml2de9MapAccessEBf_
FNDA:0,_RINvXs0_NvXNvNtNtCsggOPaNFMSYu_13nethsm_pkcs116config11config_files3_1__NtBb_14InstanceConfigNtNtCshUF5v59RDfN_5serde2de11Deserialize11deserializeNtB6_9___VisitorNtB1v_7Visitor9visit_mapNtNtCsaJZAZs7ESo2_10serde_yaml2de9MapAccessEBf_
FNDA:72,_RINvNtNtCsggOPaNFMSYu_13nethsm_pkcs116config11config_file20deserialize_passwordQNtNtCsaJZAZs7ESo2_10serde_yaml2de22DeserializerFromEventsEB6_
FNDA:72,_RINvXs0_NvXNvNtNtCsggOPaNFMSYu_13nethsm_pkcs116config11config_files7_1__NtBb_10UserConfigNtNtCshUF5v59RDfN_5serde2de11Deserialize11deserializeNtB6_9___VisitorNtB1r_7Visitor9visit_mapQNtNtCsaJZAZs7ESo2_10serde_yaml2de9MapAccessEBf_
FNDA:0,_RINvXs0_NvXNvNtNtCsggOPaNFMSYu_13nethsm_pkcs116config11config_files_1__NtBb_8LogLevelNtNtCshUF5v59RDfN_5serde2de11Deserialize11deserializeNtB6_9___VisitorNtB1n_7Visitor10visit_enumNtNtCsaJZAZs7ESo2_10serde_yaml2de10EnumAccessEBf_
FNDA:36,_RINvXNvNtNtCsggOPaNFMSYu_13nethsm_pkcs116config11config_files3_1__NtB5_14InstanceConfigNtNtCshUF5v59RDfN_5serde2de11Deserialize11deserializeQNtNtCsaJZAZs7ESo2_10serde_yaml2de22DeserializerFromEventsEB9_
FNDA:0,_RINvXNvNtNtCsggOPaNFMSYu_13nethsm_pkcs116config11config_files_1__NtB5_8LogLevelNtNtCshUF5v59RDfN_5serde2de11Deserialize11deserializeQNtNtCsaJZAZs7ESo2_10serde_yaml2de22DeserializerFromEventsEB9_
FNDA:0,_RINvXs0_NvXNvNtNtCsggOPaNFMSYu_13nethsm_pkcs116config11config_files1_1__NtBb_9P11ConfigNtNtCshUF5v59RDfN_5serde2de11Deserialize11deserializeNtB6_9___VisitorNtB1p_7Visitor9visit_mapNtNtCsaJZAZs7ESo2_10serde_yaml2de9MapAccessEBf_
FNDA:0,_RNvXNvXNvNtNtCsggOPaNFMSYu_13nethsm_pkcs116config11config_files5_1__NtB7_10SlotConfigNtNtCshUF5v59RDfN_5serde2de11Deserialize11deserializeNtB2_14___FieldVisitorNtB1n_7Visitor9expecting
FNDA:0,_RNvXNvXNvNtNtCsggOPaNFMSYu_13nethsm_pkcs116config11config_files1_1__NtB7_9P11ConfigNtNtCshUF5v59RDfN_5serde2de11Deserialize11deserializeNtB2_14___FieldVisitorNtB1l_7Visitor9expecting
FNDA:36,_RNvXs4_NtNtCsggOPaNFMSYu_13nethsm_pkcs116config11config_fileNtB5_9P11ConfigNtCsfdkSD4awTsu_5merge5Merge5merge
FNDA:0,_RNvXNvXNvNtNtCsggOPaNFMSYu_13nethsm_pkcs116config11config_files_1__NtB7_8LogLevelNtNtCshUF5v59RDfN_5serde2de11Deserialize11deserializeNtB2_14___FieldVisitorNtB1j_7Visitor9expecting
FNDA:0,_RNvXNvXNvNtNtCsggOPaNFMSYu_13nethsm_pkcs116config11config_files7_1__NtB7_10UserConfigNtNtCshUF5v59RDfN_5serde2de11Deserialize11deserializeNtB2_14___FieldVisitorNtB1n_7Visitor9expecting
FNDA:0,_RNvXs0_NvXNvNtNtCsggOPaNFMSYu_13nethsm_pkcs116config11config_files1_1__NtBa_9P11ConfigNtNtCshUF5v59RDfN_5serde2de11Deserialize11deserializeNtB5_9___VisitorNtB1o_7Visitor9expecting
FNDA:36,_RNvXs5_NtNtCsggOPaNFMSYu_13nethsm_pkcs116config11config_fileNtB5_9P11ConfigNtNtCskl7yHyHAUN_4core7default7Default7defaultB9_
FNDA:0,_RNvXs0_NvXNvNtNtCsggOPaNFMSYu_13nethsm_pkcs116config11config_files3_1__NtBa_14InstanceConfigNtNtCshUF5v59RDfN_5serde2de11Deserialize11deserializeNtB5_9___VisitorNtB1u_7Visitor9expecting
FNDA:0,_RNvXs_NtNtCsggOPaNFMSYu_13nethsm_pkcs116config11config_fileNtB4_11ConfigErrorNtNtCskl7yHyHAUN_4core3fmt5Debug3fmt
FNDA:0,_RNvXs0_NvXNvNtNtCsggOPaNFMSYu_13nethsm_pkcs116config11config_files5_1__NtBa_10SlotConfigNtNtCshUF5v59RDfN_5serde2de11Deserialize11deserializeNtB5_9___VisitorNtB1q_7Visitor9expecting
FNDA:0,_RNvXsa_NtNtCsggOPaNFMSYu_13nethsm_pkcs116config11config_fileNtB5_10UserConfigNtNtCskl7yHyHAUN_4core3fmt5Debug3fmt
FNDA:0,_RNvXs0_NvXNvNtNtCsggOPaNFMSYu_13nethsm_pkcs116config11config_files7_1__NtBa_10UserConfigNtNtCshUF5v59RDfN_5serde2de11Deserialize11deserializeNtB5_9___VisitorNtB1q_7Visitor9expecting
FNDA:36,_RNvNtNtCsggOPaNFMSYu_13nethsm_pkcs116config11config_file18read_configuration
FNDA:430,_RNvXsb_NtNtCsggOPaNFMSYu_13nethsm_pkcs116config11config_fileNtB5_10UserConfigNtNtCskl7yHyHAUN_4core5clone5Clone5cloneB9_
FNDA:0,_RNvXNvXNvNtNtCsggOPaNFMSYu_13nethsm_pkcs116config11config_files3_1__NtB7_14InstanceConfigNtNtCshUF5v59RDfN_5serde2de11Deserialize11deserializeNtB2_14___FieldVisitorNtB1r_7Visitor9expecting
FNDA:0,_RNvXNtNtCsggOPaNFMSYu_13nethsm_pkcs116config11config_fileNtCsa3tXtOGMFa2_3log11LevelFilterINtNtCskl7yHyHAUN_4core7convert4FromRNtB2_8LogLevelE4from
FNDA:0,_RINvXs0_NvXNvNtNtCsggOPaNFMSYu_13nethsm_pkcs116config11config_files7_1__NtBb_10UserConfigNtNtCshUF5v59RDfN_5serde2de11Deserialize11deserializeNtB6_9___VisitorNtB1r_7Visitor9visit_seqpEBf_
FNDA:0,_RINvXNvXNvNtNtCsggOPaNFMSYu_13nethsm_pkcs116config11config_files7_1__NtB8_10UserConfigNtNtCshUF5v59RDfN_5serde2de11Deserialize11deserializeNtB3_14___FieldVisitorNtB1o_7Visitor9visit_u64pEBc_
FNDA:0,_RINvXs0_NvXNvNtNtCsggOPaNFMSYu_13nethsm_pkcs116config11config_files5_1__NtBb_10SlotConfigNtNtCshUF5v59RDfN_5serde2de11Deserialize11deserializeNtB6_9___VisitorNtB1r_7Visitor9visit_seqpEBf_
FNDA:0,_RINvXNvNtNtCsggOPaNFMSYu_13nethsm_pkcs116config11config_file1__NtB5_8LogLevelNtNtCshUF5v59RDfN_5serde3ser9Serialize9serializepEB9_
FNDA:0,_RNvXs7_NtNtCsggOPaNFMSYu_13nethsm_pkcs116config11config_fileNtB5_14InstanceConfigNtNtCskl7yHyHAUN_4core5clone5Clone5cloneB9_
FNDA:0,_RINvXNvXNvNtNtCsggOPaNFMSYu_13nethsm_pkcs116config11config_files3_1__NtB8_14InstanceConfigNtNtCshUF5v59RDfN_5serde2de11Deserialize11deserializeNtB3_14___FieldVisitorNtB1s_7Visitor9visit_u64pEBc_
FNDA:0,_RINvXNvXNvNtNtCsggOPaNFMSYu_13nethsm_pkcs116config11config_files7_1__NtB8_10UserConfigNtNtCshUF5v59RDfN_5serde2de11Deserialize11deserializeNtB3_14___FieldVisitorNtB1o_7Visitor11visit_bytespEBc_
FNDA:0,_RINvXNvXs0_NvXNvNtNtCsggOPaNFMSYu_13nethsm_pkcs116config11config_files7_1__NtBe_10UserConfigNtNtCshUF5v59RDfN_5serde2de11Deserialize11deserializeNtB9_9___VisitorNtB1u_7Visitor9visit_seqNtB3_17___DeserializeWithB1s_11deserializepEBi_
FNDA:0,_RINvXs0_NvXNvNtNtCsggOPaNFMSYu_13nethsm_pkcs116config11config_files1_1__NtBb_9P11ConfigNtNtCshUF5v59RDfN_5serde2de11Deserialize11deserializeNtB6_9___VisitorNtB1p_7Visitor9visit_seqpEBf_
FNDA:0,_RINvXNvXNvNtNtCsggOPaNFMSYu_13nethsm_pkcs116config11config_files_1__NtB8_8LogLevelNtNtCshUF5v59RDfN_5serde2de11Deserialize11deserializeNtB3_14___FieldVisitorNtB1k_7Visitor9visit_u64pEBc_
FNDA:0,_RINvXNvNtNtCsggOPaNFMSYu_13nethsm_pkcs116config11config_files0_1__NtB5_9P11ConfigNtNtCshUF5v59RDfN_5serde3ser9Serialize9serializepEB9_
FNDA:0,_RINvXNvXNvNtNtCsggOPaNFMSYu_13nethsm_pkcs116config11config_files_1__NtB8_8LogLevelNtNtCshUF5v59RDfN_5serde2de11Deserialize11deserializeNtB3_14___FieldVisitorNtB1k_7Visitor11visit_bytespEBc_
FNDA:0,_RINvXNvNtNtCsggOPaNFMSYu_13nethsm_pkcs116config11config_files2_1__NtB5_14InstanceConfigNtNtCshUF5v59RDfN_5serde3ser9Serialize9serializepEB9_
FNDA:0,_RNvXs0_NtNtCsggOPaNFMSYu_13nethsm_pkcs116config11config_fileNtB5_8LogLevelNtNtCskl7yHyHAUN_4core3fmt5Debug3fmt
FNDA:0,_RINvXNvXNvNtNtCsggOPaNFMSYu_13nethsm_pkcs116config11config_files5_1__NtB8_10SlotConfigNtNtCshUF5v59RDfN_5serde2de11Deserialize11deserializeNtB3_14___FieldVisitorNtB1o_7Visitor9visit_u64pEBc_
FNDA:0,_RNvXs6_NtNtCsggOPaNFMSYu_13nethsm_pkcs116config11config_fileNtB5_14InstanceConfigNtNtCskl7yHyHAUN_4core3fmt5Debug3fmt
FNDA:0,_RINvXNvXNvNtNtCsggOPaNFMSYu_13nethsm_pkcs116config11config_files3_1__NtB8_14InstanceConfigNtNtCshUF5v59RDfN_5serde2de11Deserialize11deserializeNtB3_14___FieldVisitorNtB1s_7Visitor11visit_bytespEBc_
FNDA:0,_RNvXs3_NtNtCsggOPaNFMSYu_13nethsm_pkcs116config11config_fileNtB5_9P11ConfigNtNtCskl7yHyHAUN_4core5clone5Clone5cloneB9_
FNDA:0,_RNvXs8_NtNtCsggOPaNFMSYu_13nethsm_pkcs116config11config_fileNtB5_10SlotConfigNtNtCskl7yHyHAUN_4core3fmt5Debug3fmt
FNDA:0,_RINvXNvXNvNtNtCsggOPaNFMSYu_13nethsm_pkcs116config11config_files5_1__NtB8_10SlotConfigNtNtCshUF5v59RDfN_5serde2de11Deserialize11deserializeNtB3_14___FieldVisitorNtB1o_7Visitor11visit_bytespEBc_
FNDA:0,_RINvXNvNtNtCsggOPaNFMSYu_13nethsm_pkcs116config11config_files6_1__NtB5_10UserConfigNtNtCshUF5v59RDfN_5serde3ser9Serialize9serializepEB9_
FNDA:0,_RNvXs0_NvXNvNtNtCsggOPaNFMSYu_13nethsm_pkcs116config11config_files_1__NtBa_8LogLevelNtNtCshUF5v59RDfN_5serde2de11Deserialize11deserializeNtB5_9___VisitorNtB1m_7Visitor9expecting
FNDA:0,_RINvXNvXNvNtNtCsggOPaNFMSYu_13nethsm_pkcs116config11config_files1_1__NtB8_9P11ConfigNtNtCshUF5v59RDfN_5serde2de11Deserialize11deserializeNtB3_14___FieldVisitorNtB1m_7Visitor9visit_u64pEBc_
FNDA:0,_RNvXs2_NtNtCsggOPaNFMSYu_13nethsm_pkcs116config11config_fileNtB5_9P11ConfigNtNtCskl7yHyHAUN_4core3fmt5Debug3fmt
FNDA:0,_RNvXs9_NtNtCsggOPaNFMSYu_13nethsm_pkcs116config11config_fileNtB5_10SlotConfigNtNtCskl7yHyHAUN_4core5clone5Clone5cloneB9_
FNDA:0,_RINvXNvXNvNtNtCsggOPaNFMSYu_13nethsm_pkcs116config11config_files1_1__NtB8_9P11ConfigNtNtCshUF5v59RDfN_5serde2de11Deserialize11deserializeNtB3_14___FieldVisitorNtB1m_7Visitor11visit_bytespEBc_
FNDA:0,_RINvXs0_NvXNvNtNtCsggOPaNFMSYu_13nethsm_pkcs116config11config_files3_1__NtBb_14InstanceConfigNtNtCshUF5v59RDfN_5serde2de11Deserialize11deserializeNtB6_9___VisitorNtB1v_7Visitor9visit_seqpEBf_
FNDA:0,_RNvXs1_NtNtCsggOPaNFMSYu_13nethsm_pkcs116config11config_fileNtB5_8LogLevelNtNtCskl7yHyHAUN_4core5clone5Clone5cloneB9_
FNDA:0,_RINvXNvNtNtCsggOPaNFMSYu_13nethsm_pkcs116config11config_files4_1__NtB5_10SlotConfigNtNtCshUF5v59RDfN_5serde3ser9Serialize9serializepEB9_
FNDA:0,_RNCINvXs0_NvXNvNtNtCsggOPaNFMSYu_13nethsm_pkcs116config11config_files7_1__NtBd_10UserConfigNtNtCshUF5v59RDfN_5serde2de11Deserialize11deserializeNtB8_9___VisitorNtB1t_7Visitor9visit_seqpE0Bh_
FNDA:0,_RNvXNtNtCsjTLMFSz4sfV_13nethsm_pkcs116config11config_fileNtCsa3tXtOGMFa2_3log11LevelFilterINtNtCskl7yHyHAUN_4core7convert4FromRNtB2_8LogLevelE4from
FNDA:0,_RNvXs0_NtNtCsjTLMFSz4sfV_13nethsm_pkcs116config11config_fileNtB5_8LogLevelNtNtCskl7yHyHAUN_4core3fmt5Debug3fmt
FNDA:0,_RINvXNvNtNtCsjTLMFSz4sfV_13nethsm_pkcs116config11config_file1__NtB5_8LogLevelNtNtCshUF5v59RDfN_5serde3ser9Serialize9serializepEB9_
FNDA:0,_RNCINvXs0_NvXNvNtNtCsjTLMFSz4sfV_13nethsm_pkcs116config11config_files7_1__NtBd_10UserConfigNtNtCshUF5v59RDfN_5serde2de11Deserialize11deserializeNtB8_9___VisitorNtB1t_7Visitor9visit_seqpE0Bh_
FNDA:0,_RINvXs0_NvXNvNtNtCsjTLMFSz4sfV_13nethsm_pkcs116config11config_files7_1__NtBb_10UserConfigNtNtCshUF5v59RDfN_5serde2de11Deserialize11deserializeNtB6_9___VisitorNtB1r_7Visitor9visit_seqpEBf_
FNDA:0,_RNvXs9_NtNtCsjTLMFSz4sfV_13nethsm_pkcs116config11config_fileNtB5_10SlotConfigNtNtCskl7yHyHAUN_4core5clone5Clone5cloneB9_
FNDA:0,_RINvXNvXNvNtNtCsjTLMFSz4sfV_13nethsm_pkcs116config11config_files5_1__NtB8_10SlotConfigNtNtCshUF5v59RDfN_5serde2de11Deserialize11deserializeNtB3_14___FieldVisitorNtB1o_7Visitor9visit_u64pEBc_
FNDA:0,_RINvXNvXNvNtNtCsjTLMFSz4sfV_13nethsm_pkcs116config11config_files_1__NtB8_8LogLevelNtNtCshUF5v59RDfN_5serde2de11Deserialize11deserializeNtB3_14___FieldVisitorNtB1k_7Visitor11visit_bytespEBc_
FNDA:0,_RINvXNvNtNtCsjTLMFSz4sfV_13nethsm_pkcs116config11config_files2_1__NtB5_14InstanceConfigNtNtCshUF5v59RDfN_5serde3ser9Serialize9serializepEB9_
FNDA:0,_RNvXs1_NtNtCsjTLMFSz4sfV_13nethsm_pkcs116config11config_fileNtB5_8LogLevelNtNtCskl7yHyHAUN_4core5clone5Clone5cloneB9_
FNDA:0,_RINvXNvNtNtCsjTLMFSz4sfV_13nethsm_pkcs116config11config_files4_1__NtB5_10SlotConfigNtNtCshUF5v59RDfN_5serde3ser9Serialize9serializepEB9_
FNDA:0,_RINvXs0_NvXNvNtNtCsjTLMFSz4sfV_13nethsm_pkcs116config11config_files3_1__NtBb_14InstanceConfigNtNtCshUF5v59RDfN_5serde2de11Deserialize11deserializeNtB6_9___VisitorNtB1v_7Visitor9visit_seqpEBf_
FNDA:0,_RNvXs0_NvXNvNtNtCsjTLMFSz4sfV_13nethsm_pkcs116config11config_files_1__NtBa_8LogLevelNtNtCshUF5v59RDfN_5serde2de11Deserialize11deserializeNtB5_9___VisitorNtB1m_7Visitor9expecting
FNDA:0,_RINvXNvXNvNtNtCsjTLMFSz4sfV_13nethsm_pkcs116config11config_files3_1__NtB8_14InstanceConfigNtNtCshUF5v59RDfN_5serde2de11Deserialize11deserializeNtB3_14___FieldVisitorNtB1s_7Visitor11visit_bytespEBc_
FNDA:0,_RINvXNvNtNtCsjTLMFSz4sfV_13nethsm_pkcs116config11config_files6_1__NtB5_10UserConfigNtNtCshUF5v59RDfN_5serde3ser9Serialize9serializepEB9_
FNDA:0,_RNvXs7_NtNtCsjTLMFSz4sfV_13nethsm_pkcs116config11config_fileNtB5_14InstanceConfigNtNtCskl7yHyHAUN_4core5clone5Clone5cloneB9_
FNDA:0,_RINvXNvXNvNtNtCsjTLMFSz4sfV_13nethsm_pkcs116config11config_files_1__NtB8_8LogLevelNtNtCshUF5v59RDfN_5serde2de11Deserialize11deserializeNtB3_14___FieldVisitorNtB1k_7Visitor9visit_u64pEBc_
FNDA:0,_RNvXs6_NtNtCsjTLMFSz4sfV_13nethsm_pkcs116config11config_fileNtB5_14InstanceConfigNtNtCskl7yHyHAUN_4core3fmt5Debug3fmt
FNDA:0,_RNvXs3_NtNtCsjTLMFSz4sfV_13nethsm_pkcs116config11config_fileNtB5_9P11ConfigNtNtCskl7yHyHAUN_4core5clone5Clone5cloneB9_
FNDA:0,_RNvXs8_NtNtCsjTLMFSz4sfV_13nethsm_pkcs116config11config_fileNtB5_10SlotConfigNtNtCskl7yHyHAUN_4core3fmt5Debug3fmt
FNDA:0,_RINvXNvXNvNtNtCsjTLMFSz4sfV_13nethsm_pkcs116config11config_files3_1__NtB8_14InstanceConfigNtNtCshUF5v59RDfN_5serde2de11Deserialize11deserializeNtB3_14___FieldVisitorNtB1s_7Visitor9visit_u64pEBc_
FNDA:0,_RINvXs0_NvXNvNtNtCsjTLMFSz4sfV_13nethsm_pkcs116config11config_files5_1__NtBb_10SlotConfigNtNtCshUF5v59RDfN_5serde2de11Deserialize11deserializeNtB6_9___VisitorNtB1r_7Visitor9visit_seqpEBf_
FNDA:0,_RINvXNvNtNtCsjTLMFSz4sfV_13nethsm_pkcs116config11config_files0_1__NtB5_9P11ConfigNtNtCshUF5v59RDfN_5serde3ser9Serialize9serializepEB9_
FNDA:0,_RINvXNvXNvNtNtCsjTLMFSz4sfV_13nethsm_pkcs116config11config_files7_1__NtB8_10UserConfigNtNtCshUF5v59RDfN_5serde2de11Deserialize11deserializeNtB3_14___FieldVisitorNtB1o_7Visitor9visit_u64pEBc_
FNDA:0,_RINvXNvXNvNtNtCsjTLMFSz4sfV_13nethsm_pkcs116config11config_files5_1__NtB8_10SlotConfigNtNtCshUF5v59RDfN_5serde2de11Deserialize11deserializeNtB3_14___FieldVisitorNtB1o_7Visitor11visit_bytespEBc_
FNDA:0,_RINvXNvXs0_NvXNvNtNtCsjTLMFSz4sfV_13nethsm_pkcs116config11config_files7_1__NtBe_10UserConfigNtNtCshUF5v59RDfN_5serde2de11Deserialize11deserializeNtB9_9___VisitorNtB1u_7Visitor9visit_seqNtB3_17___DeserializeWithB1s_11deserializepEBi_
FNDA:0,_RNvXs2_NtNtCsjTLMFSz4sfV_13nethsm_pkcs116config11config_fileNtB5_9P11ConfigNtNtCskl7yHyHAUN_4core3fmt5Debug3fmt
FNDA:0,_RINvXNvXNvNtNtCsjTLMFSz4sfV_13nethsm_pkcs116config11config_files7_1__NtB8_10UserConfigNtNtCshUF5v59RDfN_5serde2de11Deserialize11deserializeNtB3_14___FieldVisitorNtB1o_7Visitor11visit_bytespEBc_
FNDA:0,_RINvXs0_NvXNvNtNtCsjTLMFSz4sfV_13nethsm_pkcs116config11config_files1_1__NtBb_9P11ConfigNtNtCshUF5v59RDfN_5serde2de11Deserialize11deserializeNtB6_9___VisitorNtB1p_7Visitor9visit_seqpEBf_
FNDA:0,_RINvXNvXNvNtNtCsjTLMFSz4sfV_13nethsm_pkcs116config11config_files1_1__NtB8_9P11ConfigNtNtCshUF5v59RDfN_5serde2de11Deserialize11deserializeNtB3_14___FieldVisitorNtB1m_7Visitor11visit_bytespEBc_
FNDA:0,_RINvXNvXNvNtNtCsjTLMFSz4sfV_13nethsm_pkcs116config11config_files1_1__NtB8_9P11ConfigNtNtCshUF5v59RDfN_5serde2de11Deserialize11deserializeNtB3_14___FieldVisitorNtB1m_7Visitor9visit_u64pEBc_
FNDA:0,_RNvXNvXNvNtNtCsjTLMFSz4sfV_13nethsm_pkcs116config11config_files3_1__NtB7_14InstanceConfigNtNtCshUF5v59RDfN_5serde2de11Deserialize11deserializeNtB2_14___FieldVisitorNtB1r_7Visitor9expecting
FNDA:0,_RNvXNvXNvNtNtCsjTLMFSz4sfV_13nethsm_pkcs116config11config_files5_1__NtB7_10SlotConfigNtNtCshUF5v59RDfN_5serde2de11Deserialize11deserializeNtB2_14___FieldVisitorNtB1n_7Visitor9expecting
FNDA:0,_RNvXs0_NvXNvNtNtCsjTLMFSz4sfV_13nethsm_pkcs116config11config_files3_1__NtBa_14InstanceConfigNtNtCshUF5v59RDfN_5serde2de11Deserialize11deserializeNtB5_9___VisitorNtB1u_7Visitor9expecting
FNDA:0,_RNvXs4_NtNtCsjTLMFSz4sfV_13nethsm_pkcs116config11config_fileNtB5_9P11ConfigNtCsfdkSD4awTsu_5merge5Merge5merge
FNDA:0,_RNvXs0_NvXNvNtNtCsjTLMFSz4sfV_13nethsm_pkcs116config11config_files5_1__NtBa_10SlotConfigNtNtCshUF5v59RDfN_5serde2de11Deserialize11deserializeNtB5_9___VisitorNtB1q_7Visitor9expecting
FNDA:0,_RNvXs5_NtNtCsjTLMFSz4sfV_13nethsm_pkcs116config11config_fileNtB5_9P11ConfigNtNtCskl7yHyHAUN_4core7default7Default7defaultB9_
FNDA:0,_RNvXs0_NvXNvNtNtCsjTLMFSz4sfV_13nethsm_pkcs116config11config_files7_1__NtBa_10UserConfigNtNtCshUF5v59RDfN_5serde2de11Deserialize11deserializeNtB5_9___VisitorNtB1q_7Visitor9expecting
FNDA:0,_RNvXs_NtNtCsjTLMFSz4sfV_13nethsm_pkcs116config11config_fileNtB4_11ConfigErrorNtNtCskl7yHyHAUN_4core3fmt5Debug3fmt
FNDA:0,_RNvXsa_NtNtCsjTLMFSz4sfV_13nethsm_pkcs116config11config_fileNtB5_10UserConfigNtNtCskl7yHyHAUN_4core3fmt5Debug3fmt
FNDA:0,_RNvXNvXNvNtNtCsjTLMFSz4sfV_13nethsm_pkcs116config11config_files7_1__NtB7_10UserConfigNtNtCshUF5v59RDfN_5serde2de11Deserialize11deserializeNtB2_14___FieldVisitorNtB1n_7Visitor9expecting
FNDA:0,_RNvXs0_NvXNvNtNtCsjTLMFSz4sfV_13nethsm_pkcs116config11config_files1_1__NtBa_9P11ConfigNtNtCshUF5v59RDfN_5serde2de11Deserialize11deserializeNtB5_9___VisitorNtB1o_7Visitor9expecting
FNDA:0,_RNvXNvXNvNtNtCsjTLMFSz4sfV_13nethsm_pkcs116config11config_files_1__NtB7_8LogLevelNtNtCshUF5v59RDfN_5serde2de11Deserialize11deserializeNtB2_14___FieldVisitorNtB1j_7Visitor9expecting
FNDA:0,_RNvXsb_NtNtCsjTLMFSz4sfV_13nethsm_pkcs116config11config_fileNtB5_10UserConfigNtNtCskl7yHyHAUN_4core5clone5Clone5cloneB9_
FNDA:0,_RNvNtNtCsjTLMFSz4sfV_13nethsm_pkcs116config11config_file18read_configuration
FNDA:0,_RNvXNvXNvNtNtCsjTLMFSz4sfV_13nethsm_pkcs116config11config_files1_1__NtB7_9P11ConfigNtNtCshUF5v59RDfN_5serde2de11Deserialize11deserializeNtB2_14___FieldVisitorNtB1l_7Visitor9expecting
FNDA:0,_RINvXs_NvXNvNtNtCsjTLMFSz4sfV_13nethsm_pkcs116config11config_files_1__NtBa_8LogLevelNtNtCshUF5v59RDfN_5serde2de11Deserialize11deserializeNtB5_7___FieldB1k_11deserializeINtNtB1m_5value15StrDeserializerNtNtCsaJZAZs7ESo2_10serde_yaml5error5ErrorEEBe_
FNDA:0,_RINvXNvNtNtCsjTLMFSz4sfV_13nethsm_pkcs116config11config_files7_1__NtB5_10UserConfigNtNtCshUF5v59RDfN_5serde2de11Deserialize11deserializeQNtNtCsaJZAZs7ESo2_10serde_yaml2de22DeserializerFromEventsEB9_
FNDA:0,_RINvXs_NvXNvNtNtCsjTLMFSz4sfV_13nethsm_pkcs116config11config_files3_1__NtBa_14InstanceConfigNtNtCshUF5v59RDfN_5serde2de11Deserialize11deserializeNtB5_7___FieldB1s_11deserializeQNtNtCsaJZAZs7ESo2_10serde_yaml2de22DeserializerFromEventsEBe_
FNDA:0,_RINvXs_NvXNvNtNtCsjTLMFSz4sfV_13nethsm_pkcs116config11config_files5_1__NtBa_10SlotConfigNtNtCshUF5v59RDfN_5serde2de11Deserialize11deserializeNtB5_7___FieldB1o_11deserializeQNtNtCsaJZAZs7ESo2_10serde_yaml2de22DeserializerFromEventsEBe_
FNDA:0,_RINvXs0_NvXNvNtNtCsjTLMFSz4sfV_13nethsm_pkcs116config11config_files_1__NtBb_8LogLevelNtNtCshUF5v59RDfN_5serde2de11Deserialize11deserializeNtB6_9___VisitorNtB1n_7Visitor10visit_enumNtNtCsaJZAZs7ESo2_10serde_yaml2de10EnumAccessEBf_
FNDA:0,_RINvNtNtCsjTLMFSz4sfV_13nethsm_pkcs116config11config_file20deserialize_passwordQNtNtCsaJZAZs7ESo2_10serde_yaml2de22DeserializerFromEventsEB6_
FNDA:0,_RINvXNvNtNtCsjTLMFSz4sfV_13nethsm_pkcs116config11config_files5_1__NtB5_10SlotConfigNtNtCshUF5v59RDfN_5serde2de11Deserialize11deserializeQNtNtCsaJZAZs7ESo2_10serde_yaml2de22DeserializerFromEventsEB9_
FNDA:0,_RINvXs0_NvXNvNtNtCsjTLMFSz4sfV_13nethsm_pkcs116config11config_files1_1__NtBb_9P11ConfigNtNtCshUF5v59RDfN_5serde2de11Deserialize11deserializeNtB6_9___VisitorNtB1p_7Visitor9visit_mapNtNtCsaJZAZs7ESo2_10serde_yaml2de9MapAccessEBf_
FNDA:0,_RINvXNvXNvNtNtCsjTLMFSz4sfV_13nethsm_pkcs116config11config_files3_1__NtB8_14InstanceConfigNtNtCshUF5v59RDfN_5serde2de11Deserialize11deserializeNtB3_14___FieldVisitorNtB1s_7Visitor9visit_strNtNtCsaJZAZs7ESo2_10serde_yaml5error5ErrorEBc_
FNDA:0,_RINvXNvNtNtCsjTLMFSz4sfV_13nethsm_pkcs116config11config_files_1__NtB5_8LogLevelNtNtCshUF5v59RDfN_5serde2de11Deserialize11deserializeQNtNtCsaJZAZs7ESo2_10serde_yaml2de22DeserializerFromEventsEB9_
FNDA:0,_RINvXNvXNvNtNtCsjTLMFSz4sfV_13nethsm_pkcs116config11config_files7_1__NtB8_10UserConfigNtNtCshUF5v59RDfN_5serde2de11Deserialize11deserializeNtB3_14___FieldVisitorNtB1o_7Visitor9visit_strNtNtCsaJZAZs7ESo2_10serde_yaml5error5ErrorEBc_
FNDA:0,_RINvXs0_NvXNvNtNtCsjTLMFSz4sfV_13nethsm_pkcs116config11config_files7_1__NtBb_10UserConfigNtNtCshUF5v59RDfN_5serde2de11Deserialize11deserializeNtB6_9___VisitorNtB1r_7Visitor9visit_mapQNtNtCsaJZAZs7ESo2_10serde_yaml2de9MapAccessEBf_
FNDA:0,_RINvXs0_NvXNvNtNtCsjTLMFSz4sfV_13nethsm_pkcs116config11config_files3_1__NtBb_14InstanceConfigNtNtCshUF5v59RDfN_5serde2de11Deserialize11deserializeNtB6_9___VisitorNtB1v_7Visitor9visit_mapNtNtCsaJZAZs7ESo2_10serde_yaml2de9MapAccessEBf_
FNDA:0,_RINvXs0_NvXNvNtNtCsjTLMFSz4sfV_13nethsm_pkcs116config11config_files5_1__NtBb_10SlotConfigNtNtCshUF5v59RDfN_5serde2de11Deserialize11deserializeNtB6_9___VisitorNtB1r_7Visitor9visit_mapNtNtCsaJZAZs7ESo2_10serde_yaml2de9MapAccessEBf_
FNDA:0,_RINvXs_NvXNvNtNtCsjTLMFSz4sfV_13nethsm_pkcs116config11config_files1_1__NtBa_9P11ConfigNtNtCshUF5v59RDfN_5serde2de11Deserialize11deserializeNtB5_7___FieldB1m_11deserializeQNtNtCsaJZAZs7ESo2_10serde_yaml2de22DeserializerFromEventsEBe_
FNDA:0,_RINvXNvNtNtCsjTLMFSz4sfV_13nethsm_pkcs116config11config_files1_1__NtB5_9P11ConfigNtNtCshUF5v59RDfN_5serde2de11Deserialize11deserializeNtNtCsaJZAZs7ESo2_10serde_yaml2de12DeserializerEB9_
FNDA:0,_RINvXs_NvXNvNtNtCsjTLMFSz4sfV_13nethsm_pkcs116config11config_files_1__NtBa_8LogLevelNtNtCshUF5v59RDfN_5serde2de11Deserialize11deserializeNtB5_7___FieldB1k_11deserializeQNtNtCsaJZAZs7ESo2_10serde_yaml2de22DeserializerFromEventsEBe_
FNDA:0,_RINvXNvXNvNtNtCsjTLMFSz4sfV_13nethsm_pkcs116config11config_files5_1__NtB8_10SlotConfigNtNtCshUF5v59RDfN_5serde2de11Deserialize11deserializeNtB3_14___FieldVisitorNtB1o_7Visitor9visit_strNtNtCsaJZAZs7ESo2_10serde_yaml5error5ErrorEBc_
FNDA:0,_RINvXNvNtNtCsjTLMFSz4sfV_13nethsm_pkcs116config11config_files3_1__NtB5_14InstanceConfigNtNtCshUF5v59RDfN_5serde2de11Deserialize11deserializeQNtNtCsaJZAZs7ESo2_10serde_yaml2de22DeserializerFromEventsEB9_
FNDA:0,_RINvXs0_NvXNvNtNtCsjTLMFSz4sfV_13nethsm_pkcs116config11config_files_1__NtBb_8LogLevelNtNtCshUF5v59RDfN_5serde2de11Deserialize11deserializeNtB6_9___VisitorNtB1n_7Visitor10visit_enumNtNtCsaJZAZs7ESo2_10serde_yaml2de17UnitVariantAccessEBf_
FNDA:0,_RINvXNvXNvNtNtCsjTLMFSz4sfV_13nethsm_pkcs116config11config_files1_1__NtB8_9P11ConfigNtNtCshUF5v59RDfN_5serde2de11Deserialize11deserializeNtB3_14___FieldVisitorNtB1m_7Visitor9visit_strNtNtCsaJZAZs7ESo2_10serde_yaml5error5ErrorEBc_
FNDA:0,_RINvXs0_NvXNvNtNtCsjTLMFSz4sfV_13nethsm_pkcs116config11config_files1_1__NtBb_9P11ConfigNtNtCshUF5v59RDfN_5serde2de11Deserialize11deserializeNtB6_9___VisitorNtB1p_7Visitor9visit_mapQNtNtCsaJZAZs7ESo2_10serde_yaml2de9MapAccessEBf_
FNDA:0,_RINvXNvXs0_NvXNvNtNtCsjTLMFSz4sfV_13nethsm_pkcs116config11config_files7_1__NtBe_10UserConfigNtNtCshUF5v59RDfN_5serde2de11Deserialize11deserializeNtB9_9___VisitorNtB1u_7Visitor9visit_mapNtB3_17___DeserializeWithB1s_11deserializeQNtNtCsaJZAZs7ESo2_10serde_yaml2de22DeserializerFromEventsEBi_
FNDA:0,_RINvXNvXNvNtNtCsjTLMFSz4sfV_13nethsm_pkcs116config11config_files_1__NtB8_8LogLevelNtNtCshUF5v59RDfN_5serde2de11Deserialize11deserializeNtB3_14___FieldVisitorNtB1k_7Visitor9visit_strNtNtCsaJZAZs7ESo2_10serde_yaml5error5ErrorEBc_
FNDA:0,_RINvXs_NvXNvNtNtCsjTLMFSz4sfV_13nethsm_pkcs116config11config_files7_1__NtBa_10UserConfigNtNtCshUF5v59RDfN_5serde2de11Deserialize11deserializeNtB5_7___FieldB1o_11deserializeQNtNtCsaJZAZs7ESo2_10serde_yaml2de22DeserializerFromEventsEBe_
FNDA:0,_RINvXs0_NvXNvNtNtCsjTLMFSz4sfV_13nethsm_pkcs116config11config_files7_1__NtBb_10UserConfigNtNtCshUF5v59RDfN_5serde2de11Deserialize11deserializeNtB6_9___VisitorNtB1r_7Visitor9visit_mapNtNtCsaJZAZs7ESo2_10serde_yaml2de9MapAccessEBf_
FNDA:0,_RINvXs0_NvXNvNtNtCsjTLMFSz4sfV_13nethsm_pkcs116config11config_files3_1__NtBb_14InstanceConfigNtNtCshUF5v59RDfN_5serde2de11Deserialize11deserializeNtB6_9___VisitorNtB1v_7Visitor9visit_mapQNtNtCsaJZAZs7ESo2_10serde_yaml2de9MapAccessEBf_
FNDA:0,_RINvXs0_NvXNvNtNtCsjTLMFSz4sfV_13nethsm_pkcs116config11config_files5_1__NtBb_10SlotConfigNtNtCshUF5v59RDfN_5serde2de11Deserialize11deserializeNtB6_9___VisitorNtB1r_7Visitor9visit_mapQNtNtCsaJZAZs7ESo2_10serde_yaml2de9MapAccessEBf_
FNF:26
FNH:9
DA:4,0
DA:14,36
DA:15,36
DA:17,36
DA:18,36
DA:19,36
DA:21,36
DA:22,36
DA:23,36
DA:24,0
DA:25,0
DA:26,0
DA:27,0
DA:28,0
DA:29,0
DA:31,0
DA:32,0
DA:33,0
DA:35,0
DA:37,0
DA:38,0
DA:40,0
DA:41,0
DA:43,0
DA:44,0
DA:45,0
DA:50,0
DA:51,0
DA:52,0
DA:53,0
DA:54,0
DA:55,36
DA:57,0
DA:67,0
DA:68,0
DA:69,0
DA:70,0
DA:71,0
DA:72,0
DA:73,0
DA:75,0
DA:79,108
DA:90,180
DA:99,396
DA:109,432
DA:123,72
DA:124,72
DA:125,72
DA:126,0
DA:127,0
DA:128,0
DA:129,72
DA:130,72
DA:132,0
DA:134,72
BRF:0
BRH:0
LF:72
LH:22
end_of_record
SF:/home/sautax/git/nethsm-pkcs11/pkcs11/src/config/device.rs
FN:38,_RNCNvMNtNtCsggOPaNFMSYu_13nethsm_pkcs116config6deviceNtB4_4Slot12is_connected0B8_
FN:44,_RNCNCNCNvMNtNtCsggOPaNFMSYu_13nethsm_pkcs116config6deviceNtB8_4Slot12is_connected000Bc_
FN:41,_RNCNCNvMNtNtCsggOPaNFMSYu_13nethsm_pkcs116config6deviceNtB6_4Slot12is_connected00Ba_
FN:18,_RNvXs1_NtNtCsggOPaNFMSYu_13nethsm_pkcs116config6deviceNtB5_15ClusterInstanceNtNtCskl7yHyHAUN_4core3fmt5Debug3fmt
FN:11,_RNvXs_NtNtCsggOPaNFMSYu_13nethsm_pkcs116config6deviceNtB4_6DeviceNtNtCskl7yHyHAUN_4core3fmt5Debug3fmt
FN:23,_RNvXs4_NtNtCsggOPaNFMSYu_13nethsm_pkcs116config6deviceNtB5_4SlotNtNtCskl7yHyHAUN_4core5clone5Clone5cloneB9_
FN:11,_RNvXs0_NtNtCsggOPaNFMSYu_13nethsm_pkcs116config6deviceNtB5_6DeviceNtNtCskl7yHyHAUN_4core5clone5Clone5cloneB9_
FN:18,_RNvXs2_NtNtCsggOPaNFMSYu_13nethsm_pkcs116config6deviceNtB5_15ClusterInstanceNtNtCskl7yHyHAUN_4core5clone5Clone5cloneB9_
FN:23,_RNvXs3_NtNtCsggOPaNFMSYu_13nethsm_pkcs116config6deviceNtB5_4SlotNtNtCskl7yHyHAUN_4core3fmt5Debug3fmt
FN:35,_RNvMNtNtCsggOPaNFMSYu_13nethsm_pkcs116config6deviceNtB2_4Slot12is_connected
FN:38,_RNCNvMNtNtCsjTLMFSz4sfV_13nethsm_pkcs116config6deviceNtB4_4Slot12is_connected0B8_
FN:44,_RNCNCNCNvMNtNtCsjTLMFSz4sfV_13nethsm_pkcs116config6deviceNtB8_4Slot12is_connected000Bc_
FN:41,_RNCNCNvMNtNtCsjTLMFSz4sfV_13nethsm_pkcs116config6deviceNtB6_4Slot12is_connected00Ba_
FN:23,_RNvXs3_NtNtCsjTLMFSz4sfV_13nethsm_pkcs116config6deviceNtB5_4SlotNtNtCskl7yHyHAUN_4core3fmt5Debug3fmt
FN:11,_RNvXs_NtNtCsjTLMFSz4sfV_13nethsm_pkcs116config6deviceNtB4_6DeviceNtNtCskl7yHyHAUN_4core3fmt5Debug3fmt
FN:18,_RNvXs2_NtNtCsjTLMFSz4sfV_13nethsm_pkcs116config6deviceNtB5_15ClusterInstanceNtNtCskl7yHyHAUN_4core5clone5Clone5cloneB9_
FN:23,_RNvXs4_NtNtCsjTLMFSz4sfV_13nethsm_pkcs116config6deviceNtB5_4SlotNtNtCskl7yHyHAUN_4core5clone5Clone5cloneB9_
FN:11,_RNvXs0_NtNtCsjTLMFSz4sfV_13nethsm_pkcs116config6deviceNtB5_6DeviceNtNtCskl7yHyHAUN_4core5clone5Clone5cloneB9_
FN:18,_RNvXs1_NtNtCsjTLMFSz4sfV_13nethsm_pkcs116config6deviceNtB5_15ClusterInstanceNtNtCskl7yHyHAUN_4core3fmt5Debug3fmt
FN:35,_RNvMNtNtCsjTLMFSz4sfV_13nethsm_pkcs116config6deviceNtB2_4Slot12is_connected
FNDA:41,_RNCNvMNtNtCsggOPaNFMSYu_13nethsm_pkcs116config6deviceNtB4_4Slot12is_connected0B8_
FNDA:41,_RNCNCNCNvMNtNtCsggOPaNFMSYu_13nethsm_pkcs116config6deviceNtB8_4Slot12is_connected000Bc_
FNDA:41,_RNCNCNvMNtNtCsggOPaNFMSYu_13nethsm_pkcs116config6deviceNtB6_4Slot12is_connected00Ba_
FNDA:0,_RNvXs1_NtNtCsggOPaNFMSYu_13nethsm_pkcs116config6deviceNtB5_15ClusterInstanceNtNtCskl7yHyHAUN_4core3fmt5Debug3fmt
FNDA:0,_RNvXs_NtNtCsggOPaNFMSYu_13nethsm_pkcs116config6deviceNtB4_6DeviceNtNtCskl7yHyHAUN_4core3fmt5Debug3fmt
FNDA:0,_RNvXs4_NtNtCsggOPaNFMSYu_13nethsm_pkcs116config6deviceNtB5_4SlotNtNtCskl7yHyHAUN_4core5clone5Clone5cloneB9_
FNDA:0,_RNvXs0_NtNtCsggOPaNFMSYu_13nethsm_pkcs116config6deviceNtB5_6DeviceNtNtCskl7yHyHAUN_4core5clone5Clone5cloneB9_
FNDA:0,_RNvXs2_NtNtCsggOPaNFMSYu_13nethsm_pkcs116config6deviceNtB5_15ClusterInstanceNtNtCskl7yHyHAUN_4core5clone5Clone5cloneB9_
FNDA:0,_RNvXs3_NtNtCsggOPaNFMSYu_13nethsm_pkcs116config6deviceNtB5_4SlotNtNtCskl7yHyHAUN_4core3fmt5Debug3fmt
FNDA:41,_RNvMNtNtCsggOPaNFMSYu_13nethsm_pkcs116config6deviceNtB2_4Slot12is_connected
FNDA:0,_RNCNvMNtNtCsjTLMFSz4sfV_13nethsm_pkcs116config6deviceNtB4_4Slot12is_connected0B8_
FNDA:0,_RNCNCNCNvMNtNtCsjTLMFSz4sfV_13nethsm_pkcs116config6deviceNtB8_4Slot12is_connected000Bc_
FNDA:0,_RNCNCNvMNtNtCsjTLMFSz4sfV_13nethsm_pkcs116config6deviceNtB6_4Slot12is_connected00Ba_
FNDA:0,_RNvXs3_NtNtCsjTLMFSz4sfV_13nethsm_pkcs116config6deviceNtB5_4SlotNtNtCskl7yHyHAUN_4core3fmt5Debug3fmt
FNDA:0,_RNvXs_NtNtCsjTLMFSz4sfV_13nethsm_pkcs116config6deviceNtB4_6DeviceNtNtCskl7yHyHAUN_4core3fmt5Debug3fmt
FNDA:0,_RNvXs2_NtNtCsjTLMFSz4sfV_13nethsm_pkcs116config6deviceNtB5_15ClusterInstanceNtNtCskl7yHyHAUN_4core5clone5Clone5cloneB9_
FNDA:0,_RNvXs4_NtNtCsjTLMFSz4sfV_13nethsm_pkcs116config6deviceNtB5_4SlotNtNtCskl7yHyHAUN_4core5clone5Clone5cloneB9_
FNDA:0,_RNvXs0_NtNtCsjTLMFSz4sfV_13nethsm_pkcs116config6deviceNtB5_6DeviceNtNtCskl7yHyHAUN_4core5clone5Clone5cloneB9_
FNDA:0,_RNvXs1_NtNtCsjTLMFSz4sfV_13nethsm_pkcs116config6deviceNtB5_15ClusterInstanceNtNtCskl7yHyHAUN_4core3fmt5Debug3fmt
FNDA:0,_RNvMNtNtCsjTLMFSz4sfV_13nethsm_pkcs116config6deviceNtB2_4Slot12is_connected
FNF:10
FNH:4
DA:11,0
DA:18,0
DA:23,0
DA:35,41
DA:36,41
DA:37,41
DA:38,41
DA:39,41
DA:40,41
DA:41,41
DA:42,41
DA:43,41
DA:44,41
DA:45,41
DA:46,41
DA:47,41
DA:48,41
DA:49,41
DA:50,41
BRF:0
BRH:0
LF:27
LH:21
end_of_record
SF:/home/sautax/git/nethsm-pkcs11/pkcs11/src/config/initialization.rs
FN:21,_RNvNtNtCsggOPaNFMSYu_13nethsm_pkcs116config14initialization24initialize_configuration
FN:39,_RNvNtNtCsggOPaNFMSYu_13nethsm_pkcs116config14initialization16slot_from_config
FN:13,_RNvXNtNtCsggOPaNFMSYu_13nethsm_pkcs116config14initializationNtB2_19InitializationErrorNtNtCskl7yHyHAUN_4core3fmt5Debug3fmt
FN:21,_RNvNtNtCsjTLMFSz4sfV_13nethsm_pkcs116config14initialization24initialize_configuration
FN:13,_RNvXNtNtCsjTLMFSz4sfV_13nethsm_pkcs116config14initializationNtB2_19InitializationErrorNtNtCskl7yHyHAUN_4core3fmt5Debug3fmt
FN:39,_RNvNtNtCsjTLMFSz4sfV_13nethsm_pkcs116config14initialization16slot_from_config
FNDA:36,_RNvNtNtCsggOPaNFMSYu_13nethsm_pkcs116config14initialization24initialize_configuration
FNDA:36,_RNvNtNtCsggOPaNFMSYu_13nethsm_pkcs116config14initialization16slot_from_config
FNDA:0,_RNvXNtNtCsggOPaNFMSYu_13nethsm_pkcs116config14initializationNtB2_19InitializationErrorNtNtCskl7yHyHAUN_4core3fmt5Debug3fmt
FNDA:0,_RNvNtNtCsjTLMFSz4sfV_13nethsm_pkcs116config14initialization24initialize_configuration
FNDA:0,_RNvXNtNtCsjTLMFSz4sfV_13nethsm_pkcs116config14initializationNtB2_19InitializationErrorNtNtCskl7yHyHAUN_4core3fmt5Debug3fmt
FNDA:0,_RNvNtNtCsjTLMFSz4sfV_13nethsm_pkcs116config14initialization16slot_from_config
FNF:3
FNH:2
DA:13,0
DA:21,36
DA:22,36
DA:23,36
DA:24,36
DA:25,36
DA:26,36
DA:27,36
DA:28,36
DA:29,36
DA:32,36
DA:33,36
DA:34,36
DA:35,36
DA:36,36
DA:37,36
DA:39,36
DA:40,36
DA:42,36
DA:43,36
DA:44,36
DA:45,36
DA:46,36
DA:48,36
DA:49,36
DA:50,36
DA:51,36
DA:53,36
DA:54,0
DA:55,0
DA:56,0
DA:57,0
DA:58,36
DA:59,36
DA:60,0
DA:61,0
DA:62,0
DA:63,0
DA:64,0
DA:65,0
DA:66,0
DA:67,0
DA:68,36
DA:70,36
DA:71,36
DA:72,36
DA:74,36
DA:75,36
DA:76,36
DA:77,36
DA:78,36
DA:79,36
DA:80,36
DA:81,36
DA:84,36
DA:85,36
DA:86,36
DA:87,36
DA:88,36
DA:89,36
DA:90,36
DA:91,36
DA:92,36
BRF:0
BRH:0
LF:63
LH:50
end_of_record
SF:/home/sautax/git/nethsm-pkcs11/pkcs11/src/config/logging.rs
FN:4,_RNvNtNtCsggOPaNFMSYu_13nethsm_pkcs116config7logging16configure_logger
FN:4,_RNvNtNtCsjTLMFSz4sfV_13nethsm_pkcs116config7logging16configure_logger
FNDA:36,_RNvNtNtCsggOPaNFMSYu_13nethsm_pkcs116config7logging16configure_logger
FNDA:0,_RNvNtNtCsjTLMFSz4sfV_13nethsm_pkcs116config7logging16configure_logger
FNF:1
FNH:1
DA:4,36
DA:5,36
DA:9,36
DA:10,0
DA:11,36
DA:13,36
DA:14,0
DA:15,0
DA:16,0
DA:17,0
DA:18,0
DA:19,0
DA:20,0
DA:21,0
DA:22,0
DA:23,36
DA:25,36
DA:26,36
BRF:0
BRH:0
LF:18
LH:8
end_of_record
SF:/home/sautax/git/nethsm-pkcs11/pkcs11/src/utils.rs
FN:5,_RNvNtCsggOPaNFMSYu_13nethsm_pkcs115utils12get_tokio_rt
FN:5,_RNvNtCsjTLMFSz4sfV_13nethsm_pkcs115utils12get_tokio_rt
FNDA:841,_RNvNtCsggOPaNFMSYu_13nethsm_pkcs115utils12get_tokio_rt
FNDA:0,_RNvNtCsjTLMFSz4sfV_13nethsm_pkcs115utils12get_tokio_rt
FNF:1
FNH:1
DA:5,841
DA:6,841
DA:7,841
BRF:0
BRH:0
LF:3
LH:3
end_of_record
